
MPU1_CM4.elf:     file format elf32-littlearm

Sections:
Idx Name          Size      VMA       LMA       File off  Algn
  0 .isr_vector   00000298  00000000  00000000  00010000  2**0
                  CONTENTS, ALLOC, LOAD, READONLY, DATA
  1 .text         00004764  10000000  10000000  00020000  2**4
                  CONTENTS, ALLOC, LOAD, READONLY, CODE
  2 .startup_copro_fw.Reset_Handler 00000050  10004764  10004764  00024764  2**2
                  CONTENTS, ALLOC, LOAD, READONLY, CODE
  3 .rodata       00000354  100047b4  100047b4  000247b4  2**2
                  CONTENTS, ALLOC, LOAD, READONLY, DATA
  4 .ARM.extab    00000000  10004b08  10004b08  000301b4  2**0
                  CONTENTS
  5 .ARM          00000000  10004b08  10004b08  000301b4  2**0
                  CONTENTS
  6 .preinit_array 00000000  10004b08  10004b08  000301b4  2**0
                  CONTENTS, ALLOC, LOAD, DATA
  7 .init_array   00000004  10004b08  10004b08  00024b08  2**2
                  CONTENTS, ALLOC, LOAD, DATA
  8 .fini_array   00000004  10004b0c  10004b0c  00024b0c  2**2
                  CONTENTS, ALLOC, LOAD, DATA
  9 .data         00000128  10020000  10004b10  00030000  2**2
                  CONTENTS, ALLOC, LOAD, DATA
 10 .resource_table 0000008c  10020128  10004c38  00030128  2**2
                  CONTENTS, ALLOC, LOAD, READONLY, DATA
 11 .bss          00000140  100201b4  10004cc4  000301b4  2**2
                  ALLOC
 12 ._user_heap_stack 00000604  100202f4  10004e04  000301b4  2**0
                  ALLOC
 13 .ARM.attributes 00000030  00000000  00000000  000301b4  2**0
                  CONTENTS, READONLY
 14 .comment      00000050  00000000  00000000  000301e4  2**0
                  CONTENTS, READONLY
 15 .debug_frame  00000a50  00000000  00000000  00030234  2**2
                  CONTENTS, READONLY, DEBUGGING, OCTETS

Disassembly of section .text:

10000000 <__do_global_dtors_aux>:
10000000:	b510      	push	{r4, lr}
10000002:	4c05      	ldr	r4, [pc, #20]	; (10000018 <__do_global_dtors_aux+0x18>)
10000004:	7823      	ldrb	r3, [r4, #0]
10000006:	b933      	cbnz	r3, 10000016 <__do_global_dtors_aux+0x16>
10000008:	4b04      	ldr	r3, [pc, #16]	; (1000001c <__do_global_dtors_aux+0x1c>)
1000000a:	b113      	cbz	r3, 10000012 <__do_global_dtors_aux+0x12>
1000000c:	4804      	ldr	r0, [pc, #16]	; (10000020 <__do_global_dtors_aux+0x20>)
1000000e:	f3af 8000 	nop.w
10000012:	2301      	movs	r3, #1
10000014:	7023      	strb	r3, [r4, #0]
10000016:	bd10      	pop	{r4, pc}
10000018:	100201b4 	.word	0x100201b4
1000001c:	00000000 	.word	0x00000000
10000020:	1000474c 	.word	0x1000474c

10000024 <frame_dummy>:
10000024:	b508      	push	{r3, lr}
10000026:	4b03      	ldr	r3, [pc, #12]	; (10000034 <frame_dummy+0x10>)
10000028:	b11b      	cbz	r3, 10000032 <frame_dummy+0xe>
1000002a:	4903      	ldr	r1, [pc, #12]	; (10000038 <frame_dummy+0x14>)
1000002c:	4803      	ldr	r0, [pc, #12]	; (1000003c <frame_dummy+0x18>)
1000002e:	f3af 8000 	nop.w
10000032:	bd08      	pop	{r3, pc}
10000034:	00000000 	.word	0x00000000
10000038:	100201b8 	.word	0x100201b8
1000003c:	1000474c 	.word	0x1000474c

10000040 <strcmp>:
10000040:	f810 2b01 	ldrb.w	r2, [r0], #1
10000044:	f811 3b01 	ldrb.w	r3, [r1], #1
10000048:	2a01      	cmp	r2, #1
1000004a:	bf28      	it	cs
1000004c:	429a      	cmpcs	r2, r3
1000004e:	d0f7      	beq.n	10000040 <strcmp>
10000050:	1ad0      	subs	r0, r2, r3
10000052:	4770      	bx	lr
	...

10000060 <memchr>:
10000060:	f001 01ff 	and.w	r1, r1, #255	; 0xff
10000064:	2a10      	cmp	r2, #16
10000066:	db2b      	blt.n	100000c0 <memchr+0x60>
10000068:	f010 0f07 	tst.w	r0, #7
1000006c:	d008      	beq.n	10000080 <memchr+0x20>
1000006e:	f810 3b01 	ldrb.w	r3, [r0], #1
10000072:	3a01      	subs	r2, #1
10000074:	428b      	cmp	r3, r1
10000076:	d02d      	beq.n	100000d4 <memchr+0x74>
10000078:	f010 0f07 	tst.w	r0, #7
1000007c:	b342      	cbz	r2, 100000d0 <memchr+0x70>
1000007e:	d1f6      	bne.n	1000006e <memchr+0xe>
10000080:	b4f0      	push	{r4, r5, r6, r7}
10000082:	ea41 2101 	orr.w	r1, r1, r1, lsl #8
10000086:	ea41 4101 	orr.w	r1, r1, r1, lsl #16
1000008a:	f022 0407 	bic.w	r4, r2, #7
1000008e:	f07f 0700 	mvns.w	r7, #0
10000092:	2300      	movs	r3, #0
10000094:	e8f0 5602 	ldrd	r5, r6, [r0], #8
10000098:	3c08      	subs	r4, #8
1000009a:	ea85 0501 	eor.w	r5, r5, r1
1000009e:	ea86 0601 	eor.w	r6, r6, r1
100000a2:	fa85 f547 	uadd8	r5, r5, r7
100000a6:	faa3 f587 	sel	r5, r3, r7
100000aa:	fa86 f647 	uadd8	r6, r6, r7
100000ae:	faa5 f687 	sel	r6, r5, r7
100000b2:	b98e      	cbnz	r6, 100000d8 <memchr+0x78>
100000b4:	d1ee      	bne.n	10000094 <memchr+0x34>
100000b6:	bcf0      	pop	{r4, r5, r6, r7}
100000b8:	f001 01ff 	and.w	r1, r1, #255	; 0xff
100000bc:	f002 0207 	and.w	r2, r2, #7
100000c0:	b132      	cbz	r2, 100000d0 <memchr+0x70>
100000c2:	f810 3b01 	ldrb.w	r3, [r0], #1
100000c6:	3a01      	subs	r2, #1
100000c8:	ea83 0301 	eor.w	r3, r3, r1
100000cc:	b113      	cbz	r3, 100000d4 <memchr+0x74>
100000ce:	d1f8      	bne.n	100000c2 <memchr+0x62>
100000d0:	2000      	movs	r0, #0
100000d2:	4770      	bx	lr
100000d4:	3801      	subs	r0, #1
100000d6:	4770      	bx	lr
100000d8:	2d00      	cmp	r5, #0
100000da:	bf06      	itte	eq
100000dc:	4635      	moveq	r5, r6
100000de:	3803      	subeq	r0, #3
100000e0:	3807      	subne	r0, #7
100000e2:	f015 0f01 	tst.w	r5, #1
100000e6:	d107      	bne.n	100000f8 <memchr+0x98>
100000e8:	3001      	adds	r0, #1
100000ea:	f415 7f80 	tst.w	r5, #256	; 0x100
100000ee:	bf02      	ittt	eq
100000f0:	3001      	addeq	r0, #1
100000f2:	f415 3fc0 	tsteq.w	r5, #98304	; 0x18000
100000f6:	3001      	addeq	r0, #1
100000f8:	bcf0      	pop	{r4, r5, r6, r7}
100000fa:	3801      	subs	r0, #1
100000fc:	4770      	bx	lr
100000fe:	bf00      	nop

10000100 <SystemInit>:
10000100:	4a0a      	ldr	r2, [pc, #40]	; (1000012c <SystemInit+0x2c>)
10000102:	f8d2 3088 	ldr.w	r3, [r2, #136]	; 0x88
10000106:	f443 0370 	orr.w	r3, r3, #15728640	; 0xf00000
1000010a:	f8c2 3088 	str.w	r3, [r2, #136]	; 0x88
1000010e:	4b08      	ldr	r3, [pc, #32]	; (10000130 <SystemInit+0x30>)
10000110:	2200      	movs	r2, #0
10000112:	f8c3 20c0 	str.w	r2, [r3, #192]	; 0xc0
10000116:	f8c3 20d0 	str.w	r2, [r3, #208]	; 0xd0
1000011a:	f8c3 20e0 	str.w	r2, [r3, #224]	; 0xe0
1000011e:	f8c3 20c4 	str.w	r2, [r3, #196]	; 0xc4
10000122:	f8c3 20d4 	str.w	r2, [r3, #212]	; 0xd4
10000126:	f8c3 20e4 	str.w	r2, [r3, #228]	; 0xe4
1000012a:	4770      	bx	lr
1000012c:	e000ed00 	.word	0xe000ed00
10000130:	5000d000 	.word	0x5000d000

10000134 <SystemClock_Config>:
10000134:	b5f0      	push	{r4, r5, r6, r7, lr}
10000136:	b0d3      	sub	sp, #332	; 0x14c
10000138:	f44f 728a 	mov.w	r2, #276	; 0x114
1000013c:	2100      	movs	r1, #0
1000013e:	f04f 46a0 	mov.w	r6, #1342177280	; 0x50000000
10000142:	a80d      	add	r0, sp, #52	; 0x34
10000144:	f003 fb10 	bl	10003768 <memset>
10000148:	2230      	movs	r2, #48	; 0x30
1000014a:	2100      	movs	r1, #0
1000014c:	a801      	add	r0, sp, #4
1000014e:	f003 fb0b 	bl	10003768 <memset>
10000152:	f000 fb1f 	bl	10000794 <HAL_PWR_EnableBkUpAccess>
10000156:	f8d6 3140 	ldr.w	r3, [r6, #320]	; 0x140
1000015a:	f023 0330 	bic.w	r3, r3, #48	; 0x30
1000015e:	f043 0320 	orr.w	r3, r3, #32
10000162:	f8c6 3140 	str.w	r3, [r6, #320]	; 0x140
10000166:	2217      	movs	r2, #23
10000168:	f44f 63b0 	mov.w	r3, #1408	; 0x580
1000016c:	e9cd 230d 	strd	r2, r3, [sp, #52]	; 0x34
10000170:	2300      	movs	r3, #0
10000172:	2210      	movs	r2, #16
10000174:	e9cd 2311 	strd	r2, r3, [sp, #68]	; 0x44
10000178:	e9cd 2214 	strd	r2, r2, [sp, #80]	; 0x50
1000017c:	2703      	movs	r7, #3
1000017e:	2242      	movs	r2, #66	; 0x42
10000180:	2401      	movs	r4, #1
10000182:	e9cd 7227 	strd	r7, r2, [sp, #156]	; 0x9c
10000186:	f44f 52a0 	mov.w	r2, #5120	; 0x1400
1000018a:	2502      	movs	r5, #2
1000018c:	e9cd 242d 	strd	r2, r4, [sp, #180]	; 0xb4
10000190:	2222      	movs	r2, #34	; 0x22
10000192:	e9cd 2537 	strd	r2, r5, [sp, #220]	; 0xdc
10000196:	2111      	movs	r1, #17
10000198:	2225      	movs	r2, #37	; 0x25
1000019a:	e9cd 1239 	strd	r1, r2, [sp, #228]	; 0xe4
1000019e:	f04f 7080 	mov.w	r0, #16777216	; 0x1000000
100001a2:	f641 2204 	movw	r2, #6660	; 0x1a04
100001a6:	e9cd 023b 	strd	r0, r2, [sp, #236]	; 0xec
100001aa:	f04f 0c04 	mov.w	ip, #4
100001ae:	2263      	movs	r2, #99	; 0x63
100001b0:	e9cd 440f 	strd	r4, r4, [sp, #60]	; 0x3c
100001b4:	e9cd 5425 	strd	r5, r4, [sp, #148]	; 0x94
100001b8:	e9cd 5429 	strd	r5, r4, [sp, #164]	; 0xa4
100001bc:	e9cd 5434 	strd	r5, r4, [sp, #208]	; 0xd0
100001c0:	e9cd 5443 	strd	r5, r4, [sp, #268]	; 0x10c
100001c4:	9316      	str	r3, [sp, #88]	; 0x58
100001c6:	942b      	str	r4, [sp, #172]	; 0xac
100001c8:	9536      	str	r5, [sp, #216]	; 0xd8
100001ca:	943d      	str	r4, [sp, #244]	; 0xf4
100001cc:	f04f 0e06 	mov.w	lr, #6
100001d0:	e9cd c245 	strd	ip, r2, [sp, #276]	; 0x114
100001d4:	a80d      	add	r0, sp, #52	; 0x34
100001d6:	2208      	movs	r2, #8
100001d8:	e9cd e247 	strd	lr, r2, [sp, #284]	; 0x11c
100001dc:	e9cd 2349 	strd	r2, r3, [sp, #292]	; 0x124
100001e0:	e9cd 334b 	strd	r3, r3, [sp, #300]	; 0x12c
100001e4:	f000 fd98 	bl	10000d18 <HAL_RCC_OscConfig>
100001e8:	b108      	cbz	r0, 100001ee <SystemClock_Config+0xba>
100001ea:	b672      	cpsid	i
100001ec:	e7fe      	b.n	100001ec <SystemClock_Config+0xb8>
100001ee:	e9cd 5004 	strd	r5, r0, [sp, #16]
100001f2:	e9cd 7006 	strd	r7, r0, [sp, #24]
100001f6:	23fe      	movs	r3, #254	; 0xfe
100001f8:	a801      	add	r0, sp, #4
100001fa:	e9cd 4508 	strd	r4, r5, [sp, #32]
100001fe:	e9cd 440a 	strd	r4, r4, [sp, #40]	; 0x28
10000202:	9301      	str	r3, [sp, #4]
10000204:	940c      	str	r4, [sp, #48]	; 0x30
10000206:	f000 ffdf 	bl	100011c8 <HAL_RCC_ClockConfig>
1000020a:	b108      	cbz	r0, 10000210 <SystemClock_Config+0xdc>
1000020c:	b672      	cpsid	i
1000020e:	e7fe      	b.n	1000020e <SystemClock_Config+0xda>
10000210:	6c73      	ldr	r3, [r6, #68]	; 0x44
10000212:	f023 033f 	bic.w	r3, r3, #63	; 0x3f
10000216:	f043 0317 	orr.w	r3, r3, #23
1000021a:	6473      	str	r3, [r6, #68]	; 0x44
1000021c:	b053      	add	sp, #332	; 0x14c
1000021e:	bdf0      	pop	{r4, r5, r6, r7, pc}

10000220 <PeriphCommonClock_Config>:
10000220:	b500      	push	{lr}
10000222:	b0d7      	sub	sp, #348	; 0x15c
10000224:	f44f 72ac 	mov.w	r2, #344	; 0x158
10000228:	2100      	movs	r1, #0
1000022a:	4668      	mov	r0, sp
1000022c:	f003 fa9c 	bl	10003768 <memset>
10000230:	2300      	movs	r3, #0
10000232:	f44f 0200 	mov.w	r2, #8388608	; 0x800000
10000236:	e9cd 2300 	strd	r2, r3, [sp]
1000023a:	4668      	mov	r0, sp
1000023c:	2302      	movs	r3, #2
1000023e:	9345      	str	r3, [sp, #276]	; 0x114
10000240:	f001 fb14 	bl	1000186c <HAL_RCCEx_PeriphCLKConfig>
10000244:	b108      	cbz	r0, 1000024a <PeriphCommonClock_Config+0x2a>
10000246:	b672      	cpsid	i
10000248:	e7fe      	b.n	10000248 <PeriphCommonClock_Config+0x28>
1000024a:	b057      	add	sp, #348	; 0x15c
1000024c:	f85d fb04 	ldr.w	pc, [sp], #4

10000250 <main>:
10000250:	4c16      	ldr	r4, [pc, #88]	; (100002ac <main+0x5c>)
10000252:	b508      	push	{r3, lr}
10000254:	f000 f91e 	bl	10000494 <HAL_Init>
10000258:	6823      	ldr	r3, [r4, #0]
1000025a:	f003 0307 	and.w	r3, r3, #7
1000025e:	2b04      	cmp	r3, #4
10000260:	d101      	bne.n	10000266 <main+0x16>
10000262:	f7ff ff67 	bl	10000134 <SystemClock_Config>
10000266:	6823      	ldr	r3, [r4, #0]
10000268:	f003 0307 	and.w	r3, r3, #7
1000026c:	2b04      	cmp	r3, #4
1000026e:	d10f      	bne.n	10000290 <main+0x40>
10000270:	f7ff ffd6 	bl	10000220 <PeriphCommonClock_Config>
10000274:	f04f 43a0 	mov.w	r3, #1342177280	; 0x50000000
10000278:	2204      	movs	r2, #4
1000027a:	2180      	movs	r1, #128	; 0x80
1000027c:	f8c3 2aa8 	str.w	r2, [r3, #2728]	; 0xaa8
10000280:	f8c3 1aa8 	str.w	r1, [r3, #2728]	; 0xaa8
10000284:	f8c3 2a98 	str.w	r2, [r3, #2712]	; 0xa98
10000288:	2201      	movs	r2, #1
1000028a:	f8c3 2a98 	str.w	r2, [r3, #2712]	; 0xa98
1000028e:	e7fe      	b.n	1000028e <main+0x3e>
10000290:	4807      	ldr	r0, [pc, #28]	; (100002b0 <main+0x60>)
10000292:	4b08      	ldr	r3, [pc, #32]	; (100002b4 <main+0x64>)
10000294:	6003      	str	r3, [r0, #0]
10000296:	f000 fa5b 	bl	10000750 <HAL_IPCC_Init>
1000029a:	4601      	mov	r1, r0
1000029c:	b108      	cbz	r0, 100002a2 <main+0x52>
1000029e:	b672      	cpsid	i
100002a0:	e7fe      	b.n	100002a0 <main+0x50>
100002a2:	2001      	movs	r0, #1
100002a4:	f003 f92a 	bl	100034fc <MX_OPENAMP_Init>
100002a8:	e7e4      	b.n	10000274 <main+0x24>
100002aa:	bf00      	nop
100002ac:	50020000 	.word	0x50020000
100002b0:	100201d0 	.word	0x100201d0
100002b4:	4c001000 	.word	0x4c001000

100002b8 <HAL_MspInit>:
100002b8:	b508      	push	{r3, lr}
100002ba:	f04f 43a0 	mov.w	r3, #1342177280	; 0x50000000
100002be:	f44f 6200 	mov.w	r2, #2048	; 0x800
100002c2:	f8c3 2aa0 	str.w	r2, [r3, #2720]	; 0xaa0
100002c6:	2101      	movs	r1, #1
100002c8:	2200      	movs	r2, #0
100002ca:	f06f 000b 	mvn.w	r0, #11
100002ce:	f000 f91b 	bl	10000508 <HAL_NVIC_SetPriority>
100002d2:	2200      	movs	r2, #0
100002d4:	2101      	movs	r1, #1
100002d6:	f06f 000a 	mvn.w	r0, #10
100002da:	f000 f915 	bl	10000508 <HAL_NVIC_SetPriority>
100002de:	2200      	movs	r2, #0
100002e0:	2101      	movs	r1, #1
100002e2:	f06f 0009 	mvn.w	r0, #9
100002e6:	f000 f90f 	bl	10000508 <HAL_NVIC_SetPriority>
100002ea:	2200      	movs	r2, #0
100002ec:	2101      	movs	r1, #1
100002ee:	f06f 0004 	mvn.w	r0, #4
100002f2:	f000 f909 	bl	10000508 <HAL_NVIC_SetPriority>
100002f6:	2200      	movs	r2, #0
100002f8:	2101      	movs	r1, #1
100002fa:	f06f 0003 	mvn.w	r0, #3
100002fe:	f000 f903 	bl	10000508 <HAL_NVIC_SetPriority>
10000302:	2200      	movs	r2, #0
10000304:	2101      	movs	r1, #1
10000306:	f06f 0001 	mvn.w	r0, #1
1000030a:	f000 f8fd 	bl	10000508 <HAL_NVIC_SetPriority>
1000030e:	2200      	movs	r2, #0
10000310:	2091      	movs	r0, #145	; 0x91
10000312:	4611      	mov	r1, r2
10000314:	f000 f8f8 	bl	10000508 <HAL_NVIC_SetPriority>
10000318:	e8bd 4008 	ldmia.w	sp!, {r3, lr}
1000031c:	2091      	movs	r0, #145	; 0x91
1000031e:	f000 b925 	b.w	1000056c <HAL_NVIC_EnableIRQ>
	...

10000324 <HAL_IPCC_MspInit>:
10000324:	b508      	push	{r3, lr}
10000326:	6802      	ldr	r2, [r0, #0]
10000328:	4b0d      	ldr	r3, [pc, #52]	; (10000360 <HAL_IPCC_MspInit+0x3c>)
1000032a:	429a      	cmp	r2, r3
1000032c:	d117      	bne.n	1000035e <HAL_IPCC_MspInit+0x3a>
1000032e:	f04f 43a0 	mov.w	r3, #1342177280	; 0x50000000
10000332:	f44f 5280 	mov.w	r2, #4096	; 0x1000
10000336:	f8c3 2aa0 	str.w	r2, [r3, #2720]	; 0xaa0
1000033a:	2101      	movs	r1, #1
1000033c:	2200      	movs	r2, #0
1000033e:	2067      	movs	r0, #103	; 0x67
10000340:	f000 f8e2 	bl	10000508 <HAL_NVIC_SetPriority>
10000344:	2067      	movs	r0, #103	; 0x67
10000346:	f000 f911 	bl	1000056c <HAL_NVIC_EnableIRQ>
1000034a:	2068      	movs	r0, #104	; 0x68
1000034c:	2200      	movs	r2, #0
1000034e:	2101      	movs	r1, #1
10000350:	f000 f8da 	bl	10000508 <HAL_NVIC_SetPriority>
10000354:	e8bd 4008 	ldmia.w	sp!, {r3, lr}
10000358:	2068      	movs	r0, #104	; 0x68
1000035a:	f000 b907 	b.w	1000056c <HAL_NVIC_EnableIRQ>
1000035e:	bd08      	pop	{r3, pc}
10000360:	4c001000 	.word	0x4c001000

10000364 <NMI_Handler>:
10000364:	e7fe      	b.n	10000364 <NMI_Handler>

10000366 <HardFault_Handler>:
10000366:	e7fe      	b.n	10000366 <HardFault_Handler>

10000368 <MemManage_Handler>:
10000368:	e7fe      	b.n	10000368 <MemManage_Handler>

1000036a <BusFault_Handler>:
1000036a:	e7fe      	b.n	1000036a <BusFault_Handler>

1000036c <UsageFault_Handler>:
1000036c:	e7fe      	b.n	1000036c <UsageFault_Handler>

1000036e <SVC_Handler>:
1000036e:	4770      	bx	lr

10000370 <DebugMon_Handler>:
10000370:	4770      	bx	lr

10000372 <PendSV_Handler>:
10000372:	4770      	bx	lr

10000374 <SysTick_Handler>:
10000374:	f000 b8a4 	b.w	100004c0 <HAL_IncTick>

10000378 <IPCC_RX1_IRQHandler>:
10000378:	4801      	ldr	r0, [pc, #4]	; (10000380 <IPCC_RX1_IRQHandler+0x8>)
1000037a:	f000 b957 	b.w	1000062c <HAL_IPCC_RX_IRQHandler>
1000037e:	bf00      	nop
10000380:	100201d0 	.word	0x100201d0

10000384 <IPCC_TX1_IRQHandler>:
10000384:	4801      	ldr	r0, [pc, #4]	; (1000038c <IPCC_TX1_IRQHandler+0x8>)
10000386:	f000 b925 	b.w	100005d4 <HAL_IPCC_TX_IRQHandler>
1000038a:	bf00      	nop
1000038c:	100201d0 	.word	0x100201d0

10000390 <RCC_WAKEUP_IRQHandler>:
10000390:	f000 bfc3 	b.w	1000131a <HAL_RCC_WAKEUP_IRQHandler>

10000394 <_getpid>:
10000394:	2001      	movs	r0, #1
10000396:	4770      	bx	lr

10000398 <_kill>:
10000398:	b508      	push	{r3, lr}
1000039a:	f003 f98b 	bl	100036b4 <__errno>
1000039e:	2316      	movs	r3, #22
100003a0:	6003      	str	r3, [r0, #0]
100003a2:	f04f 30ff 	mov.w	r0, #4294967295
100003a6:	bd08      	pop	{r3, pc}

100003a8 <_exit>:
100003a8:	b508      	push	{r3, lr}
100003aa:	f003 f983 	bl	100036b4 <__errno>
100003ae:	2316      	movs	r3, #22
100003b0:	6003      	str	r3, [r0, #0]
100003b2:	e7fe      	b.n	100003b2 <_exit+0xa>

100003b4 <_read>:
100003b4:	b570      	push	{r4, r5, r6, lr}
100003b6:	460d      	mov	r5, r1
100003b8:	4614      	mov	r4, r2
100003ba:	460e      	mov	r6, r1
100003bc:	1b73      	subs	r3, r6, r5
100003be:	429c      	cmp	r4, r3
100003c0:	dc01      	bgt.n	100003c6 <_read+0x12>
100003c2:	4620      	mov	r0, r4
100003c4:	bd70      	pop	{r4, r5, r6, pc}
100003c6:	f3af 8000 	nop.w
100003ca:	f806 0b01 	strb.w	r0, [r6], #1
100003ce:	e7f5      	b.n	100003bc <_read+0x8>

100003d0 <_write>:
100003d0:	b570      	push	{r4, r5, r6, lr}
100003d2:	460d      	mov	r5, r1
100003d4:	4614      	mov	r4, r2
100003d6:	460e      	mov	r6, r1
100003d8:	1b73      	subs	r3, r6, r5
100003da:	429c      	cmp	r4, r3
100003dc:	dc01      	bgt.n	100003e2 <_write+0x12>
100003de:	4620      	mov	r0, r4
100003e0:	bd70      	pop	{r4, r5, r6, pc}
100003e2:	f816 0b01 	ldrb.w	r0, [r6], #1
100003e6:	f3af 8000 	nop.w
100003ea:	e7f5      	b.n	100003d8 <_write+0x8>

100003ec <_close>:
100003ec:	f04f 30ff 	mov.w	r0, #4294967295
100003f0:	4770      	bx	lr

100003f2 <_fstat>:
100003f2:	f44f 5300 	mov.w	r3, #8192	; 0x2000
100003f6:	604b      	str	r3, [r1, #4]
100003f8:	2000      	movs	r0, #0
100003fa:	4770      	bx	lr

100003fc <_isatty>:
100003fc:	2001      	movs	r0, #1
100003fe:	4770      	bx	lr

10000400 <_lseek>:
10000400:	2000      	movs	r0, #0
10000402:	4770      	bx	lr

10000404 <_sbrk>:
10000404:	4a0b      	ldr	r2, [pc, #44]	; (10000434 <_sbrk+0x30>)
10000406:	6811      	ldr	r1, [r2, #0]
10000408:	b510      	push	{r4, lr}
1000040a:	4603      	mov	r3, r0
1000040c:	b909      	cbnz	r1, 10000412 <_sbrk+0xe>
1000040e:	490a      	ldr	r1, [pc, #40]	; (10000438 <_sbrk+0x34>)
10000410:	6011      	str	r1, [r2, #0]
10000412:	6810      	ldr	r0, [r2, #0]
10000414:	4909      	ldr	r1, [pc, #36]	; (1000043c <_sbrk+0x38>)
10000416:	4c0a      	ldr	r4, [pc, #40]	; (10000440 <_sbrk+0x3c>)
10000418:	4403      	add	r3, r0
1000041a:	1b09      	subs	r1, r1, r4
1000041c:	428b      	cmp	r3, r1
1000041e:	d906      	bls.n	1000042e <_sbrk+0x2a>
10000420:	f003 f948 	bl	100036b4 <__errno>
10000424:	230c      	movs	r3, #12
10000426:	6003      	str	r3, [r0, #0]
10000428:	f04f 30ff 	mov.w	r0, #4294967295
1000042c:	bd10      	pop	{r4, pc}
1000042e:	6013      	str	r3, [r2, #0]
10000430:	e7fc      	b.n	1000042c <_sbrk+0x28>
10000432:	bf00      	nop
10000434:	1002020c 	.word	0x1002020c
10000438:	100202f8 	.word	0x100202f8
1000043c:	10040000 	.word	0x10040000
10000440:	00000400 	.word	0x00000400

10000444 <ADC1_IRQHandler>:
10000444:	e7fe      	b.n	10000444 <ADC1_IRQHandler>
	...

10000448 <HAL_InitTick>:
10000448:	b538      	push	{r3, r4, r5, lr}
1000044a:	4b0f      	ldr	r3, [pc, #60]	; (10000488 <HAL_InitTick+0x40>)
1000044c:	4605      	mov	r5, r0
1000044e:	7818      	ldrb	r0, [r3, #0]
10000450:	b908      	cbnz	r0, 10000456 <HAL_InitTick+0xe>
10000452:	2001      	movs	r0, #1
10000454:	bd38      	pop	{r3, r4, r5, pc}
10000456:	4a0d      	ldr	r2, [pc, #52]	; (1000048c <HAL_InitTick+0x44>)
10000458:	f44f 737a 	mov.w	r3, #1000	; 0x3e8
1000045c:	fbb3 f3f0 	udiv	r3, r3, r0
10000460:	6810      	ldr	r0, [r2, #0]
10000462:	fbb0 f0f3 	udiv	r0, r0, r3
10000466:	f000 f88f 	bl	10000588 <HAL_SYSTICK_Config>
1000046a:	4604      	mov	r4, r0
1000046c:	2800      	cmp	r0, #0
1000046e:	d1f0      	bne.n	10000452 <HAL_InitTick+0xa>
10000470:	2d0f      	cmp	r5, #15
10000472:	d8ee      	bhi.n	10000452 <HAL_InitTick+0xa>
10000474:	4602      	mov	r2, r0
10000476:	4629      	mov	r1, r5
10000478:	f04f 30ff 	mov.w	r0, #4294967295
1000047c:	f000 f844 	bl	10000508 <HAL_NVIC_SetPriority>
10000480:	4b03      	ldr	r3, [pc, #12]	; (10000490 <HAL_InitTick+0x48>)
10000482:	4620      	mov	r0, r4
10000484:	601d      	str	r5, [r3, #0]
10000486:	e7e5      	b.n	10000454 <HAL_InitTick+0xc>
10000488:	10020004 	.word	0x10020004
1000048c:	10020000 	.word	0x10020000
10000490:	10020008 	.word	0x10020008

10000494 <HAL_Init>:
10000494:	b510      	push	{r4, lr}
10000496:	2003      	movs	r0, #3
10000498:	f000 f824 	bl	100004e4 <HAL_NVIC_SetPriorityGrouping>
1000049c:	f000 ff3a 	bl	10001314 <HAL_RCC_GetSystemCoreClockFreq>
100004a0:	4b06      	ldr	r3, [pc, #24]	; (100004bc <HAL_Init+0x28>)
100004a2:	6018      	str	r0, [r3, #0]
100004a4:	2001      	movs	r0, #1
100004a6:	f7ff ffcf 	bl	10000448 <HAL_InitTick>
100004aa:	4604      	mov	r4, r0
100004ac:	b918      	cbnz	r0, 100004b6 <HAL_Init+0x22>
100004ae:	f7ff ff03 	bl	100002b8 <HAL_MspInit>
100004b2:	4620      	mov	r0, r4
100004b4:	bd10      	pop	{r4, pc}
100004b6:	2401      	movs	r4, #1
100004b8:	e7fb      	b.n	100004b2 <HAL_Init+0x1e>
100004ba:	bf00      	nop
100004bc:	10020000 	.word	0x10020000

100004c0 <HAL_IncTick>:
100004c0:	4a03      	ldr	r2, [pc, #12]	; (100004d0 <HAL_IncTick+0x10>)
100004c2:	4b04      	ldr	r3, [pc, #16]	; (100004d4 <HAL_IncTick+0x14>)
100004c4:	6811      	ldr	r1, [r2, #0]
100004c6:	781b      	ldrb	r3, [r3, #0]
100004c8:	440b      	add	r3, r1
100004ca:	6013      	str	r3, [r2, #0]
100004cc:	4770      	bx	lr
100004ce:	bf00      	nop
100004d0:	10020210 	.word	0x10020210
100004d4:	10020004 	.word	0x10020004

100004d8 <HAL_GetTick>:
100004d8:	4b01      	ldr	r3, [pc, #4]	; (100004e0 <HAL_GetTick+0x8>)
100004da:	6818      	ldr	r0, [r3, #0]
100004dc:	4770      	bx	lr
100004de:	bf00      	nop
100004e0:	10020210 	.word	0x10020210

100004e4 <HAL_NVIC_SetPriorityGrouping>:
100004e4:	4907      	ldr	r1, [pc, #28]	; (10000504 <HAL_NVIC_SetPriorityGrouping+0x20>)
100004e6:	68ca      	ldr	r2, [r1, #12]
100004e8:	f422 62e0 	bic.w	r2, r2, #1792	; 0x700
100004ec:	0203      	lsls	r3, r0, #8
100004ee:	0412      	lsls	r2, r2, #16
100004f0:	f403 63e0 	and.w	r3, r3, #1792	; 0x700
100004f4:	0c12      	lsrs	r2, r2, #16
100004f6:	4313      	orrs	r3, r2
100004f8:	f043 63bf 	orr.w	r3, r3, #100139008	; 0x5f80000
100004fc:	f443 3300 	orr.w	r3, r3, #131072	; 0x20000
10000500:	60cb      	str	r3, [r1, #12]
10000502:	4770      	bx	lr
10000504:	e000ed00 	.word	0xe000ed00

10000508 <HAL_NVIC_SetPriority>:
10000508:	4b16      	ldr	r3, [pc, #88]	; (10000564 <HAL_NVIC_SetPriority+0x5c>)
1000050a:	b530      	push	{r4, r5, lr}
1000050c:	68dc      	ldr	r4, [r3, #12]
1000050e:	f3c4 2402 	ubfx	r4, r4, #8, #3
10000512:	f1c4 0507 	rsb	r5, r4, #7
10000516:	1d23      	adds	r3, r4, #4
10000518:	2d04      	cmp	r5, #4
1000051a:	bf28      	it	cs
1000051c:	2504      	movcs	r5, #4
1000051e:	2b06      	cmp	r3, #6
10000520:	f04f 33ff 	mov.w	r3, #4294967295
10000524:	bf8c      	ite	hi
10000526:	3c03      	subhi	r4, #3
10000528:	2400      	movls	r4, #0
1000052a:	fa03 f505 	lsl.w	r5, r3, r5
1000052e:	ea21 0105 	bic.w	r1, r1, r5
10000532:	40a3      	lsls	r3, r4
10000534:	ea22 0203 	bic.w	r2, r2, r3
10000538:	40a1      	lsls	r1, r4
1000053a:	2800      	cmp	r0, #0
1000053c:	ea41 0302 	orr.w	r3, r1, r2
10000540:	bfac      	ite	ge
10000542:	f100 4060 	addge.w	r0, r0, #3758096384	; 0xe0000000
10000546:	4a08      	ldrlt	r2, [pc, #32]	; (10000568 <HAL_NVIC_SetPriority+0x60>)
10000548:	ea4f 1303 	mov.w	r3, r3, lsl #4
1000054c:	bfb8      	it	lt
1000054e:	f000 000f 	andlt.w	r0, r0, #15
10000552:	b2db      	uxtb	r3, r3
10000554:	bfaa      	itet	ge
10000556:	f500 4061 	addge.w	r0, r0, #57600	; 0xe100
1000055a:	5413      	strblt	r3, [r2, r0]
1000055c:	f880 3300 	strbge.w	r3, [r0, #768]	; 0x300
10000560:	bd30      	pop	{r4, r5, pc}
10000562:	bf00      	nop
10000564:	e000ed00 	.word	0xe000ed00
10000568:	e000ed14 	.word	0xe000ed14

1000056c <HAL_NVIC_EnableIRQ>:
1000056c:	2800      	cmp	r0, #0
1000056e:	db08      	blt.n	10000582 <HAL_NVIC_EnableIRQ+0x16>
10000570:	2301      	movs	r3, #1
10000572:	0942      	lsrs	r2, r0, #5
10000574:	f000 001f 	and.w	r0, r0, #31
10000578:	fa03 f000 	lsl.w	r0, r3, r0
1000057c:	4b01      	ldr	r3, [pc, #4]	; (10000584 <HAL_NVIC_EnableIRQ+0x18>)
1000057e:	f843 0022 	str.w	r0, [r3, r2, lsl #2]
10000582:	4770      	bx	lr
10000584:	e000e100 	.word	0xe000e100

10000588 <HAL_SYSTICK_Config>:
10000588:	3801      	subs	r0, #1
1000058a:	f1b0 7f80 	cmp.w	r0, #16777216	; 0x1000000
1000058e:	d20b      	bcs.n	100005a8 <HAL_SYSTICK_Config+0x20>
10000590:	f04f 23e0 	mov.w	r3, #3758153728	; 0xe000e000
10000594:	4a05      	ldr	r2, [pc, #20]	; (100005ac <HAL_SYSTICK_Config+0x24>)
10000596:	6158      	str	r0, [r3, #20]
10000598:	21f0      	movs	r1, #240	; 0xf0
1000059a:	f882 1023 	strb.w	r1, [r2, #35]	; 0x23
1000059e:	2000      	movs	r0, #0
100005a0:	2207      	movs	r2, #7
100005a2:	6198      	str	r0, [r3, #24]
100005a4:	611a      	str	r2, [r3, #16]
100005a6:	4770      	bx	lr
100005a8:	2001      	movs	r0, #1
100005aa:	4770      	bx	lr
100005ac:	e000ed00 	.word	0xe000ed00

100005b0 <HAL_IPCC_TxCallback>:
100005b0:	4770      	bx	lr

100005b2 <HAL_IPCC_RxCallback>:
100005b2:	4770      	bx	lr

100005b4 <HAL_IPCC_GetChannelStatus>:
100005b4:	f001 010f 	and.w	r1, r1, #15
100005b8:	2001      	movs	r0, #1
100005ba:	4b05      	ldr	r3, [pc, #20]	; (100005d0 <HAL_IPCC_GetChannelStatus+0x1c>)
100005bc:	4088      	lsls	r0, r1
100005be:	b92a      	cbnz	r2, 100005cc <HAL_IPCC_GetChannelStatus+0x18>
100005c0:	69d9      	ldr	r1, [r3, #28]
100005c2:	4008      	ands	r0, r1
100005c4:	3800      	subs	r0, #0
100005c6:	bf18      	it	ne
100005c8:	2001      	movne	r0, #1
100005ca:	4770      	bx	lr
100005cc:	68d9      	ldr	r1, [r3, #12]
100005ce:	e7f8      	b.n	100005c2 <HAL_IPCC_GetChannelStatus+0xe>
100005d0:	4c001000 	.word	0x4c001000

100005d4 <HAL_IPCC_TX_IRQHandler>:
100005d4:	e92d 47f0 	stmdb	sp!, {r4, r5, r6, r7, r8, r9, sl, lr}
100005d8:	4e13      	ldr	r6, [pc, #76]	; (10000628 <HAL_IPCC_TX_IRQHandler+0x54>)
100005da:	6974      	ldr	r4, [r6, #20]
100005dc:	69f3      	ldr	r3, [r6, #28]
100005de:	ea44 4403 	orr.w	r4, r4, r3, lsl #16
100005e2:	43e4      	mvns	r4, r4
100005e4:	4607      	mov	r7, r0
100005e6:	f404 147c 	and.w	r4, r4, #4128768	; 0x3f0000
100005ea:	f04f 0a00 	mov.w	sl, #0
100005ee:	f04f 0801 	mov.w	r8, #1
100005f2:	f100 091c 	add.w	r9, r0, #28
100005f6:	b90c      	cbnz	r4, 100005fc <HAL_IPCC_TX_IRQHandler+0x28>
100005f8:	e8bd 87f0 	ldmia.w	sp!, {r4, r5, r6, r7, r8, r9, sl, pc}
100005fc:	f00a 050f 	and.w	r5, sl, #15
10000600:	3510      	adds	r5, #16
10000602:	fa08 f505 	lsl.w	r5, r8, r5
10000606:	422c      	tst	r4, r5
10000608:	d00b      	beq.n	10000622 <HAL_IPCC_TX_IRQHandler+0x4e>
1000060a:	6973      	ldr	r3, [r6, #20]
1000060c:	432b      	orrs	r3, r5
1000060e:	6173      	str	r3, [r6, #20]
10000610:	f859 302a 	ldr.w	r3, [r9, sl, lsl #2]
10000614:	b11b      	cbz	r3, 1000061e <HAL_IPCC_TX_IRQHandler+0x4a>
10000616:	2200      	movs	r2, #0
10000618:	4651      	mov	r1, sl
1000061a:	4638      	mov	r0, r7
1000061c:	4798      	blx	r3
1000061e:	ea24 0405 	bic.w	r4, r4, r5
10000622:	f10a 0a01 	add.w	sl, sl, #1
10000626:	e7e6      	b.n	100005f6 <HAL_IPCC_TX_IRQHandler+0x22>
10000628:	4c001000 	.word	0x4c001000

1000062c <HAL_IPCC_RX_IRQHandler>:
1000062c:	e92d 43f8 	stmdb	sp!, {r3, r4, r5, r6, r7, r8, r9, lr}
10000630:	f8df 8048 	ldr.w	r8, [pc, #72]	; 1000067c <HAL_IPCC_RX_IRQHandler+0x50>
10000634:	f8d8 3014 	ldr.w	r3, [r8, #20]
10000638:	f8d8 400c 	ldr.w	r4, [r8, #12]
1000063c:	2501      	movs	r5, #1
1000063e:	ea24 0403 	bic.w	r4, r4, r3
10000642:	4607      	mov	r7, r0
10000644:	f004 043f 	and.w	r4, r4, #63	; 0x3f
10000648:	46a9      	mov	r9, r5
1000064a:	1e69      	subs	r1, r5, #1
1000064c:	b90c      	cbnz	r4, 10000652 <HAL_IPCC_RX_IRQHandler+0x26>
1000064e:	e8bd 83f8 	ldmia.w	sp!, {r3, r4, r5, r6, r7, r8, r9, pc}
10000652:	f001 060f 	and.w	r6, r1, #15
10000656:	fa09 f606 	lsl.w	r6, r9, r6
1000065a:	4234      	tst	r4, r6
1000065c:	d00c      	beq.n	10000678 <HAL_IPCC_RX_IRQHandler+0x4c>
1000065e:	f8d8 3014 	ldr.w	r3, [r8, #20]
10000662:	4333      	orrs	r3, r6
10000664:	f8c8 3014 	str.w	r3, [r8, #20]
10000668:	f857 3025 	ldr.w	r3, [r7, r5, lsl #2]
1000066c:	b113      	cbz	r3, 10000674 <HAL_IPCC_RX_IRQHandler+0x48>
1000066e:	2201      	movs	r2, #1
10000670:	4638      	mov	r0, r7
10000672:	4798      	blx	r3
10000674:	ea24 0406 	bic.w	r4, r4, r6
10000678:	3501      	adds	r5, #1
1000067a:	e7e6      	b.n	1000064a <HAL_IPCC_RX_IRQHandler+0x1e>
1000067c:	4c001000 	.word	0x4c001000

10000680 <IPCC_UnmaskInterrupt>:
10000680:	4b07      	ldr	r3, [pc, #28]	; (100006a0 <IPCC_UnmaskInterrupt+0x20>)
10000682:	f000 000f 	and.w	r0, r0, #15
10000686:	695a      	ldr	r2, [r3, #20]
10000688:	b939      	cbnz	r1, 1000069a <IPCC_UnmaskInterrupt+0x1a>
1000068a:	f44f 3180 	mov.w	r1, #65536	; 0x10000
1000068e:	fa01 f000 	lsl.w	r0, r1, r0
10000692:	ea22 0000 	bic.w	r0, r2, r0
10000696:	6158      	str	r0, [r3, #20]
10000698:	4770      	bx	lr
1000069a:	2101      	movs	r1, #1
1000069c:	e7f7      	b.n	1000068e <IPCC_UnmaskInterrupt+0xe>
1000069e:	bf00      	nop
100006a0:	4c001000 	.word	0x4c001000

100006a4 <HAL_IPCC_ActivateNotification>:
100006a4:	b5f8      	push	{r3, r4, r5, r6, r7, lr}
100006a6:	460c      	mov	r4, r1
100006a8:	b310      	cbz	r0, 100006f0 <HAL_IPCC_ActivateNotification+0x4c>
100006aa:	f890 5038 	ldrb.w	r5, [r0, #56]	; 0x38
100006ae:	2d01      	cmp	r5, #1
100006b0:	b2e9      	uxtb	r1, r5
100006b2:	d11d      	bne.n	100006f0 <HAL_IPCC_ActivateNotification+0x4c>
100006b4:	6b45      	ldr	r5, [r0, #52]	; 0x34
100006b6:	f004 060f 	and.w	r6, r4, #15
100006ba:	b94a      	cbnz	r2, 100006d0 <HAL_IPCC_ActivateNotification+0x2c>
100006bc:	eb00 0484 	add.w	r4, r0, r4, lsl #2
100006c0:	61e3      	str	r3, [r4, #28]
100006c2:	f44f 3380 	mov.w	r3, #65536	; 0x10000
100006c6:	40b3      	lsls	r3, r6
100006c8:	432b      	orrs	r3, r5
100006ca:	6343      	str	r3, [r0, #52]	; 0x34
100006cc:	4610      	mov	r0, r2
100006ce:	bdf8      	pop	{r3, r4, r5, r6, r7, pc}
100006d0:	eb00 0784 	add.w	r7, r0, r4, lsl #2
100006d4:	2a01      	cmp	r2, #1
100006d6:	607b      	str	r3, [r7, #4]
100006d8:	fa01 f306 	lsl.w	r3, r1, r6
100006dc:	ea43 0305 	orr.w	r3, r3, r5
100006e0:	6343      	str	r3, [r0, #52]	; 0x34
100006e2:	d103      	bne.n	100006ec <HAL_IPCC_ActivateNotification+0x48>
100006e4:	4611      	mov	r1, r2
100006e6:	4620      	mov	r0, r4
100006e8:	f7ff ffca 	bl	10000680 <IPCC_UnmaskInterrupt>
100006ec:	2200      	movs	r2, #0
100006ee:	e7ed      	b.n	100006cc <HAL_IPCC_ActivateNotification+0x28>
100006f0:	2201      	movs	r2, #1
100006f2:	e7eb      	b.n	100006cc <HAL_IPCC_ActivateNotification+0x28>

100006f4 <HAL_IPCC_NotifyCPU>:
100006f4:	b570      	push	{r4, r5, r6, lr}
100006f6:	4604      	mov	r4, r0
100006f8:	4608      	mov	r0, r1
100006fa:	f894 3038 	ldrb.w	r3, [r4, #56]	; 0x38
100006fe:	2b01      	cmp	r3, #1
10000700:	d113      	bne.n	1000072a <HAL_IPCC_NotifyCPU+0x36>
10000702:	4d0b      	ldr	r5, [pc, #44]	; (10000730 <HAL_IPCC_NotifyCPU+0x3c>)
10000704:	2a00      	cmp	r2, #0
10000706:	69a9      	ldr	r1, [r5, #24]
10000708:	bf0c      	ite	eq
1000070a:	f44f 3380 	moveq.w	r3, #65536	; 0x10000
1000070e:	2301      	movne	r3, #1
10000710:	f000 060f 	and.w	r6, r0, #15
10000714:	40b3      	lsls	r3, r6
10000716:	4319      	orrs	r1, r3
10000718:	61a9      	str	r1, [r5, #24]
1000071a:	6b61      	ldr	r1, [r4, #52]	; 0x34
1000071c:	438b      	bics	r3, r1
1000071e:	d102      	bne.n	10000726 <HAL_IPCC_NotifyCPU+0x32>
10000720:	4611      	mov	r1, r2
10000722:	f7ff ffad 	bl	10000680 <IPCC_UnmaskInterrupt>
10000726:	2000      	movs	r0, #0
10000728:	e000      	b.n	1000072c <HAL_IPCC_NotifyCPU+0x38>
1000072a:	2001      	movs	r0, #1
1000072c:	bd70      	pop	{r4, r5, r6, pc}
1000072e:	bf00      	nop
10000730:	4c001000 	.word	0x4c001000

10000734 <IPCC_SetDefaultCallbacks>:
10000734:	4904      	ldr	r1, [pc, #16]	; (10000748 <IPCC_SetDefaultCallbacks+0x14>)
10000736:	4a05      	ldr	r2, [pc, #20]	; (1000074c <IPCC_SetDefaultCallbacks+0x18>)
10000738:	1d03      	adds	r3, r0, #4
1000073a:	301c      	adds	r0, #28
1000073c:	f843 1b04 	str.w	r1, [r3], #4
10000740:	4283      	cmp	r3, r0
10000742:	615a      	str	r2, [r3, #20]
10000744:	d1fa      	bne.n	1000073c <IPCC_SetDefaultCallbacks+0x8>
10000746:	4770      	bx	lr
10000748:	100005b3 	.word	0x100005b3
1000074c:	100005b1 	.word	0x100005b1

10000750 <HAL_IPCC_Init>:
10000750:	b538      	push	{r3, r4, r5, lr}
10000752:	4604      	mov	r4, r0
10000754:	b1c8      	cbz	r0, 1000078a <HAL_IPCC_Init+0x3a>
10000756:	f890 3038 	ldrb.w	r3, [r0, #56]	; 0x38
1000075a:	b90b      	cbnz	r3, 10000760 <HAL_IPCC_Init+0x10>
1000075c:	f7ff fde2 	bl	10000324 <HAL_IPCC_MspInit>
10000760:	4b0b      	ldr	r3, [pc, #44]	; (10000790 <HAL_IPCC_Init+0x40>)
10000762:	2500      	movs	r5, #0
10000764:	f04f 123f 	mov.w	r2, #4128831	; 0x3f003f
10000768:	611d      	str	r5, [r3, #16]
1000076a:	615a      	str	r2, [r3, #20]
1000076c:	223f      	movs	r2, #63	; 0x3f
1000076e:	619a      	str	r2, [r3, #24]
10000770:	691a      	ldr	r2, [r3, #16]
10000772:	f042 1201 	orr.w	r2, r2, #65537	; 0x10001
10000776:	611a      	str	r2, [r3, #16]
10000778:	4620      	mov	r0, r4
1000077a:	f7ff ffdb 	bl	10000734 <IPCC_SetDefaultCallbacks>
1000077e:	2301      	movs	r3, #1
10000780:	6365      	str	r5, [r4, #52]	; 0x34
10000782:	f884 3038 	strb.w	r3, [r4, #56]	; 0x38
10000786:	4628      	mov	r0, r5
10000788:	bd38      	pop	{r3, r4, r5, pc}
1000078a:	2001      	movs	r0, #1
1000078c:	e7fc      	b.n	10000788 <HAL_IPCC_Init+0x38>
1000078e:	bf00      	nop
10000790:	4c001000 	.word	0x4c001000

10000794 <HAL_PWR_EnableBkUpAccess>:
10000794:	4a02      	ldr	r2, [pc, #8]	; (100007a0 <HAL_PWR_EnableBkUpAccess+0xc>)
10000796:	6813      	ldr	r3, [r2, #0]
10000798:	f443 7380 	orr.w	r3, r3, #256	; 0x100
1000079c:	6013      	str	r3, [r2, #0]
1000079e:	4770      	bx	lr
100007a0:	50001000 	.word	0x50001000

100007a4 <HAL_RCC_HSEConfig>:
100007a4:	b570      	push	{r4, r5, r6, lr}
100007a6:	f04f 44a0 	mov.w	r4, #1342177280	; 0x50000000
100007aa:	f44f 7380 	mov.w	r3, #256	; 0x100
100007ae:	6123      	str	r3, [r4, #16]
100007b0:	4605      	mov	r5, r0
100007b2:	f7ff fe91 	bl	100004d8 <HAL_GetTick>
100007b6:	4606      	mov	r6, r0
100007b8:	f8d4 3808 	ldr.w	r3, [r4, #2056]	; 0x808
100007bc:	05da      	lsls	r2, r3, #23
100007be:	d405      	bmi.n	100007cc <HAL_RCC_HSEConfig+0x28>
100007c0:	f44f 6390 	mov.w	r3, #1152	; 0x480
100007c4:	6123      	str	r3, [r4, #16]
100007c6:	b945      	cbnz	r5, 100007da <HAL_RCC_HSEConfig+0x36>
100007c8:	2000      	movs	r0, #0
100007ca:	e005      	b.n	100007d8 <HAL_RCC_HSEConfig+0x34>
100007cc:	f7ff fe84 	bl	100004d8 <HAL_GetTick>
100007d0:	1b80      	subs	r0, r0, r6
100007d2:	2864      	cmp	r0, #100	; 0x64
100007d4:	d9f0      	bls.n	100007b8 <HAL_RCC_HSEConfig+0x14>
100007d6:	2003      	movs	r0, #3
100007d8:	bd70      	pop	{r4, r5, r6, pc}
100007da:	f5b5 6fa0 	cmp.w	r5, #1280	; 0x500
100007de:	d116      	bne.n	1000080e <HAL_RCC_HSEConfig+0x6a>
100007e0:	68e3      	ldr	r3, [r4, #12]
100007e2:	f443 6380 	orr.w	r3, r3, #1024	; 0x400
100007e6:	60e3      	str	r3, [r4, #12]
100007e8:	f04f 44a0 	mov.w	r4, #1342177280	; 0x50000000
100007ec:	68e3      	ldr	r3, [r4, #12]
100007ee:	f443 7380 	orr.w	r3, r3, #256	; 0x100
100007f2:	60e3      	str	r3, [r4, #12]
100007f4:	f7ff fe70 	bl	100004d8 <HAL_GetTick>
100007f8:	4605      	mov	r5, r0
100007fa:	f8d4 3808 	ldr.w	r3, [r4, #2056]	; 0x808
100007fe:	05db      	lsls	r3, r3, #23
10000800:	d4e2      	bmi.n	100007c8 <HAL_RCC_HSEConfig+0x24>
10000802:	f7ff fe69 	bl	100004d8 <HAL_GetTick>
10000806:	1b40      	subs	r0, r0, r5
10000808:	2864      	cmp	r0, #100	; 0x64
1000080a:	d9f6      	bls.n	100007fa <HAL_RCC_HSEConfig+0x56>
1000080c:	e7e3      	b.n	100007d6 <HAL_RCC_HSEConfig+0x32>
1000080e:	f5b5 6fb0 	cmp.w	r5, #1408	; 0x580
10000812:	d1e9      	bne.n	100007e8 <HAL_RCC_HSEConfig+0x44>
10000814:	68e3      	ldr	r3, [r4, #12]
10000816:	f043 0380 	orr.w	r3, r3, #128	; 0x80
1000081a:	60e3      	str	r3, [r4, #12]
1000081c:	e7e0      	b.n	100007e0 <HAL_RCC_HSEConfig+0x3c>

1000081e <HAL_RCC_LSEConfig>:
1000081e:	b5f8      	push	{r3, r4, r5, r6, r7, lr}
10000820:	f04f 44a0 	mov.w	r4, #1342177280	; 0x50000000
10000824:	4605      	mov	r5, r0
10000826:	f8d4 3140 	ldr.w	r3, [r4, #320]	; 0x140
1000082a:	f023 0301 	bic.w	r3, r3, #1
1000082e:	f8c4 3140 	str.w	r3, [r4, #320]	; 0x140
10000832:	f7ff fe51 	bl	100004d8 <HAL_GetTick>
10000836:	f241 3788 	movw	r7, #5000	; 0x1388
1000083a:	4606      	mov	r6, r0
1000083c:	f8d4 3140 	ldr.w	r3, [r4, #320]	; 0x140
10000840:	075a      	lsls	r2, r3, #29
10000842:	d408      	bmi.n	10000856 <HAL_RCC_LSEConfig+0x38>
10000844:	f8d4 3140 	ldr.w	r3, [r4, #320]	; 0x140
10000848:	f023 030a 	bic.w	r3, r3, #10
1000084c:	f8c4 3140 	str.w	r3, [r4, #320]	; 0x140
10000850:	b945      	cbnz	r5, 10000864 <HAL_RCC_LSEConfig+0x46>
10000852:	2000      	movs	r0, #0
10000854:	e005      	b.n	10000862 <HAL_RCC_LSEConfig+0x44>
10000856:	f7ff fe3f 	bl	100004d8 <HAL_GetTick>
1000085a:	1b80      	subs	r0, r0, r6
1000085c:	42b8      	cmp	r0, r7
1000085e:	d9ed      	bls.n	1000083c <HAL_RCC_LSEConfig+0x1e>
10000860:	2003      	movs	r0, #3
10000862:	bdf8      	pop	{r3, r4, r5, r6, r7, pc}
10000864:	2d03      	cmp	r5, #3
10000866:	d11c      	bne.n	100008a2 <HAL_RCC_LSEConfig+0x84>
10000868:	f8d4 3140 	ldr.w	r3, [r4, #320]	; 0x140
1000086c:	f043 0302 	orr.w	r3, r3, #2
10000870:	f8c4 3140 	str.w	r3, [r4, #320]	; 0x140
10000874:	f04f 44a0 	mov.w	r4, #1342177280	; 0x50000000
10000878:	f241 3688 	movw	r6, #5000	; 0x1388
1000087c:	f8d4 3140 	ldr.w	r3, [r4, #320]	; 0x140
10000880:	f043 0301 	orr.w	r3, r3, #1
10000884:	f8c4 3140 	str.w	r3, [r4, #320]	; 0x140
10000888:	f7ff fe26 	bl	100004d8 <HAL_GetTick>
1000088c:	4605      	mov	r5, r0
1000088e:	f8d4 3140 	ldr.w	r3, [r4, #320]	; 0x140
10000892:	075b      	lsls	r3, r3, #29
10000894:	d4dd      	bmi.n	10000852 <HAL_RCC_LSEConfig+0x34>
10000896:	f7ff fe1f 	bl	100004d8 <HAL_GetTick>
1000089a:	1b40      	subs	r0, r0, r5
1000089c:	42b0      	cmp	r0, r6
1000089e:	d9f6      	bls.n	1000088e <HAL_RCC_LSEConfig+0x70>
100008a0:	e7de      	b.n	10000860 <HAL_RCC_LSEConfig+0x42>
100008a2:	2d0b      	cmp	r5, #11
100008a4:	d1e6      	bne.n	10000874 <HAL_RCC_LSEConfig+0x56>
100008a6:	f8d4 3140 	ldr.w	r3, [r4, #320]	; 0x140
100008aa:	f043 0308 	orr.w	r3, r3, #8
100008ae:	f8c4 3140 	str.w	r3, [r4, #320]	; 0x140
100008b2:	e7d9      	b.n	10000868 <HAL_RCC_LSEConfig+0x4a>

100008b4 <RCC_PLL1_Config>:
100008b4:	6801      	ldr	r1, [r0, #0]
100008b6:	b570      	push	{r4, r5, r6, lr}
100008b8:	4604      	mov	r4, r0
100008ba:	b909      	cbnz	r1, 100008c0 <RCC_PLL1_Config+0xc>
100008bc:	2000      	movs	r0, #0
100008be:	e00a      	b.n	100008d6 <RCC_PLL1_Config+0x22>
100008c0:	f04f 43a0 	mov.w	r3, #1342177280	; 0x50000000
100008c4:	6a1a      	ldr	r2, [r3, #32]
100008c6:	f002 0203 	and.w	r2, r2, #3
100008ca:	2a02      	cmp	r2, #2
100008cc:	d104      	bne.n	100008d8 <RCC_PLL1_Config+0x24>
100008ce:	6a1a      	ldr	r2, [r3, #32]
100008d0:	2a00      	cmp	r2, #0
100008d2:	da01      	bge.n	100008d8 <RCC_PLL1_Config+0x24>
100008d4:	2001      	movs	r0, #1
100008d6:	bd70      	pop	{r4, r5, r6, pc}
100008d8:	6a1a      	ldr	r2, [r3, #32]
100008da:	f002 0203 	and.w	r2, r2, #3
100008de:	2a03      	cmp	r2, #3
100008e0:	d102      	bne.n	100008e8 <RCC_PLL1_Config+0x34>
100008e2:	6a1b      	ldr	r3, [r3, #32]
100008e4:	2b00      	cmp	r3, #0
100008e6:	dbf5      	blt.n	100008d4 <RCC_PLL1_Config+0x20>
100008e8:	f04f 45a0 	mov.w	r5, #1342177280	; 0x50000000
100008ec:	2902      	cmp	r1, #2
100008ee:	f8d5 3080 	ldr.w	r3, [r5, #128]	; 0x80
100008f2:	f023 0370 	bic.w	r3, r3, #112	; 0x70
100008f6:	f8c5 3080 	str.w	r3, [r5, #128]	; 0x80
100008fa:	f8d5 3080 	ldr.w	r3, [r5, #128]	; 0x80
100008fe:	f023 0301 	bic.w	r3, r3, #1
10000902:	f8c5 3080 	str.w	r3, [r5, #128]	; 0x80
10000906:	f040 80a7 	bne.w	10000a58 <RCC_PLL1_Config+0x1a4>
1000090a:	f7ff fde5 	bl	100004d8 <HAL_GetTick>
1000090e:	4606      	mov	r6, r0
10000910:	f8d5 3080 	ldr.w	r3, [r5, #128]	; 0x80
10000914:	0799      	lsls	r1, r3, #30
10000916:	d47d      	bmi.n	10000a14 <RCC_PLL1_Config+0x160>
10000918:	6a6a      	ldr	r2, [r5, #36]	; 0x24
1000091a:	6861      	ldr	r1, [r4, #4]
1000091c:	f002 0207 	and.w	r2, r2, #7
10000920:	2a02      	cmp	r2, #2
10000922:	d17f      	bne.n	10000a24 <RCC_PLL1_Config+0x170>
10000924:	6a6b      	ldr	r3, [r5, #36]	; 0x24
10000926:	2b00      	cmp	r3, #0
10000928:	da7c      	bge.n	10000a24 <RCC_PLL1_Config+0x170>
1000092a:	6aaa      	ldr	r2, [r5, #40]	; 0x28
1000092c:	f002 0203 	and.w	r2, r2, #3
10000930:	428a      	cmp	r2, r1
10000932:	d1cf      	bne.n	100008d4 <RCC_PLL1_Config+0x20>
10000934:	f04f 45a0 	mov.w	r5, #1342177280	; 0x50000000
10000938:	6aab      	ldr	r3, [r5, #40]	; 0x28
1000093a:	2b00      	cmp	r3, #0
1000093c:	da7a      	bge.n	10000a34 <RCC_PLL1_Config+0x180>
1000093e:	f8d5 1084 	ldr.w	r1, [r5, #132]	; 0x84
10000942:	68e3      	ldr	r3, [r4, #12]
10000944:	4a4b      	ldr	r2, [pc, #300]	; (10000a74 <RCC_PLL1_Config+0x1c0>)
10000946:	3b01      	subs	r3, #1
10000948:	400a      	ands	r2, r1
1000094a:	4313      	orrs	r3, r2
1000094c:	68a2      	ldr	r2, [r4, #8]
1000094e:	3a01      	subs	r2, #1
10000950:	ea43 4302 	orr.w	r3, r3, r2, lsl #16
10000954:	f8c5 3084 	str.w	r3, [r5, #132]	; 0x84
10000958:	f8d5 2088 	ldr.w	r2, [r5, #136]	; 0x88
1000095c:	6923      	ldr	r3, [r4, #16]
1000095e:	f022 127f 	bic.w	r2, r2, #8323199	; 0x7f007f
10000962:	f422 42fe 	bic.w	r2, r2, #32512	; 0x7f00
10000966:	3b01      	subs	r3, #1
10000968:	4313      	orrs	r3, r2
1000096a:	6962      	ldr	r2, [r4, #20]
1000096c:	3a01      	subs	r2, #1
1000096e:	ea43 2302 	orr.w	r3, r3, r2, lsl #8
10000972:	69a2      	ldr	r2, [r4, #24]
10000974:	3a01      	subs	r2, #1
10000976:	ea43 4302 	orr.w	r3, r3, r2, lsl #16
1000097a:	f8c5 3088 	str.w	r3, [r5, #136]	; 0x88
1000097e:	f8d5 308c 	ldr.w	r3, [r5, #140]	; 0x8c
10000982:	4a3d      	ldr	r2, [pc, #244]	; (10000a78 <RCC_PLL1_Config+0x1c4>)
10000984:	f423 3380 	bic.w	r3, r3, #65536	; 0x10000
10000988:	f8c5 308c 	str.w	r3, [r5, #140]	; 0x8c
1000098c:	6a61      	ldr	r1, [r4, #36]	; 0x24
1000098e:	f031 0302 	bics.w	r3, r1, #2
10000992:	f8d5 308c 	ldr.w	r3, [r5, #140]	; 0x8c
10000996:	bf1b      	ittet	ne
10000998:	6a20      	ldrne	r0, [r4, #32]
1000099a:	4013      	andne	r3, r2
1000099c:	4013      	andeq	r3, r2
1000099e:	ea43 03c0 	orrne.w	r3, r3, r0, lsl #3
100009a2:	f04f 42a0 	mov.w	r2, #1342177280	; 0x50000000
100009a6:	f8c5 308c 	str.w	r3, [r5, #140]	; 0x8c
100009aa:	f8d2 308c 	ldr.w	r3, [r2, #140]	; 0x8c
100009ae:	2902      	cmp	r1, #2
100009b0:	f443 3380 	orr.w	r3, r3, #65536	; 0x10000
100009b4:	f8c2 308c 	str.w	r3, [r2, #140]	; 0x8c
100009b8:	d143      	bne.n	10000a42 <RCC_PLL1_Config+0x18e>
100009ba:	f8d2 1090 	ldr.w	r1, [r2, #144]	; 0x90
100009be:	6aa3      	ldr	r3, [r4, #40]	; 0x28
100009c0:	6b20      	ldr	r0, [r4, #48]	; 0x30
100009c2:	f001 4100 	and.w	r1, r1, #2147483648	; 0x80000000
100009c6:	4303      	orrs	r3, r0
100009c8:	430b      	orrs	r3, r1
100009ca:	6ae1      	ldr	r1, [r4, #44]	; 0x2c
100009cc:	430b      	orrs	r3, r1
100009ce:	6b61      	ldr	r1, [r4, #52]	; 0x34
100009d0:	430b      	orrs	r3, r1
100009d2:	6ba1      	ldr	r1, [r4, #56]	; 0x38
100009d4:	ea43 4301 	orr.w	r3, r3, r1, lsl #16
100009d8:	f8c2 3090 	str.w	r3, [r2, #144]	; 0x90
100009dc:	f8d2 3080 	ldr.w	r3, [r2, #128]	; 0x80
100009e0:	f043 0304 	orr.w	r3, r3, #4
100009e4:	f04f 44a0 	mov.w	r4, #1342177280	; 0x50000000
100009e8:	f8c2 3080 	str.w	r3, [r2, #128]	; 0x80
100009ec:	f8d4 3080 	ldr.w	r3, [r4, #128]	; 0x80
100009f0:	f043 0301 	orr.w	r3, r3, #1
100009f4:	f8c4 3080 	str.w	r3, [r4, #128]	; 0x80
100009f8:	f7ff fd6e 	bl	100004d8 <HAL_GetTick>
100009fc:	4605      	mov	r5, r0
100009fe:	f8d4 3080 	ldr.w	r3, [r4, #128]	; 0x80
10000a02:	079a      	lsls	r2, r3, #30
10000a04:	d522      	bpl.n	10000a4c <RCC_PLL1_Config+0x198>
10000a06:	f8d4 3080 	ldr.w	r3, [r4, #128]	; 0x80
10000a0a:	f043 0370 	orr.w	r3, r3, #112	; 0x70
10000a0e:	f8c4 3080 	str.w	r3, [r4, #128]	; 0x80
10000a12:	e753      	b.n	100008bc <RCC_PLL1_Config+0x8>
10000a14:	f7ff fd60 	bl	100004d8 <HAL_GetTick>
10000a18:	1b80      	subs	r0, r0, r6
10000a1a:	2864      	cmp	r0, #100	; 0x64
10000a1c:	f67f af78 	bls.w	10000910 <RCC_PLL1_Config+0x5c>
10000a20:	2003      	movs	r0, #3
10000a22:	e758      	b.n	100008d6 <RCC_PLL1_Config+0x22>
10000a24:	f04f 42a0 	mov.w	r2, #1342177280	; 0x50000000
10000a28:	6a93      	ldr	r3, [r2, #40]	; 0x28
10000a2a:	f023 0303 	bic.w	r3, r3, #3
10000a2e:	430b      	orrs	r3, r1
10000a30:	6293      	str	r3, [r2, #40]	; 0x28
10000a32:	e77f      	b.n	10000934 <RCC_PLL1_Config+0x80>
10000a34:	f7ff fd50 	bl	100004d8 <HAL_GetTick>
10000a38:	1b80      	subs	r0, r0, r6
10000a3a:	2864      	cmp	r0, #100	; 0x64
10000a3c:	f67f af7c 	bls.w	10000938 <RCC_PLL1_Config+0x84>
10000a40:	e7ee      	b.n	10000a20 <RCC_PLL1_Config+0x16c>
10000a42:	f8d2 3080 	ldr.w	r3, [r2, #128]	; 0x80
10000a46:	f023 0304 	bic.w	r3, r3, #4
10000a4a:	e7cb      	b.n	100009e4 <RCC_PLL1_Config+0x130>
10000a4c:	f7ff fd44 	bl	100004d8 <HAL_GetTick>
10000a50:	1b40      	subs	r0, r0, r5
10000a52:	2864      	cmp	r0, #100	; 0x64
10000a54:	d9d3      	bls.n	100009fe <RCC_PLL1_Config+0x14a>
10000a56:	e7e3      	b.n	10000a20 <RCC_PLL1_Config+0x16c>
10000a58:	f7ff fd3e 	bl	100004d8 <HAL_GetTick>
10000a5c:	4604      	mov	r4, r0
10000a5e:	f8d5 3080 	ldr.w	r3, [r5, #128]	; 0x80
10000a62:	079b      	lsls	r3, r3, #30
10000a64:	f57f af2a 	bpl.w	100008bc <RCC_PLL1_Config+0x8>
10000a68:	f7ff fd36 	bl	100004d8 <HAL_GetTick>
10000a6c:	1b00      	subs	r0, r0, r4
10000a6e:	2864      	cmp	r0, #100	; 0x64
10000a70:	d9f5      	bls.n	10000a5e <RCC_PLL1_Config+0x1aa>
10000a72:	e7d5      	b.n	10000a20 <RCC_PLL1_Config+0x16c>
10000a74:	ffc0fe00 	.word	0xffc0fe00
10000a78:	ffff0007 	.word	0xffff0007

10000a7c <RCC_MPUConfig>:
10000a7c:	6801      	ldr	r1, [r0, #0]
10000a7e:	b538      	push	{r3, r4, r5, lr}
10000a80:	2903      	cmp	r1, #3
10000a82:	d80a      	bhi.n	10000a9a <RCC_MPUConfig+0x1e>
10000a84:	e8df f001 	tbb	[pc, r1]
10000a88:	19120b02 	.word	0x19120b02
10000a8c:	f04f 43a0 	mov.w	r3, #1342177280	; 0x50000000
10000a90:	f8d3 3808 	ldr.w	r3, [r3, #2056]	; 0x808
10000a94:	f013 0f01 	tst.w	r3, #1
10000a98:	d11b      	bne.n	10000ad2 <RCC_MPUConfig+0x56>
10000a9a:	2001      	movs	r0, #1
10000a9c:	e027      	b.n	10000aee <RCC_MPUConfig+0x72>
10000a9e:	f04f 43a0 	mov.w	r3, #1342177280	; 0x50000000
10000aa2:	f8d3 3808 	ldr.w	r3, [r3, #2056]	; 0x808
10000aa6:	f413 7f80 	tst.w	r3, #256	; 0x100
10000aaa:	e7f5      	b.n	10000a98 <RCC_MPUConfig+0x1c>
10000aac:	f04f 43a0 	mov.w	r3, #1342177280	; 0x50000000
10000ab0:	f8d3 3080 	ldr.w	r3, [r3, #128]	; 0x80
10000ab4:	f013 0f02 	tst.w	r3, #2
10000ab8:	e7ee      	b.n	10000a98 <RCC_MPUConfig+0x1c>
10000aba:	f04f 43a0 	mov.w	r3, #1342177280	; 0x50000000
10000abe:	f8d3 2080 	ldr.w	r2, [r3, #128]	; 0x80
10000ac2:	0792      	lsls	r2, r2, #30
10000ac4:	d5e9      	bpl.n	10000a9a <RCC_MPUConfig+0x1e>
10000ac6:	6ada      	ldr	r2, [r3, #44]	; 0x2c
10000ac8:	6840      	ldr	r0, [r0, #4]
10000aca:	f022 0207 	bic.w	r2, r2, #7
10000ace:	4302      	orrs	r2, r0
10000ad0:	62da      	str	r2, [r3, #44]	; 0x2c
10000ad2:	f04f 44a0 	mov.w	r4, #1342177280	; 0x50000000
10000ad6:	6a23      	ldr	r3, [r4, #32]
10000ad8:	f023 0303 	bic.w	r3, r3, #3
10000adc:	430b      	orrs	r3, r1
10000ade:	6223      	str	r3, [r4, #32]
10000ae0:	f7ff fcfa 	bl	100004d8 <HAL_GetTick>
10000ae4:	4605      	mov	r5, r0
10000ae6:	6a23      	ldr	r3, [r4, #32]
10000ae8:	2b00      	cmp	r3, #0
10000aea:	da01      	bge.n	10000af0 <RCC_MPUConfig+0x74>
10000aec:	2000      	movs	r0, #0
10000aee:	bd38      	pop	{r3, r4, r5, pc}
10000af0:	f7ff fcf2 	bl	100004d8 <HAL_GetTick>
10000af4:	1b40      	subs	r0, r0, r5
10000af6:	f5b0 7f7a 	cmp.w	r0, #1000	; 0x3e8
10000afa:	d9f4      	bls.n	10000ae6 <RCC_MPUConfig+0x6a>
10000afc:	2003      	movs	r0, #3
10000afe:	e7f6      	b.n	10000aee <RCC_MPUConfig+0x72>

10000b00 <RCC_AXISSConfig>:
10000b00:	b570      	push	{r4, r5, r6, lr}
10000b02:	4604      	mov	r4, r0
10000b04:	6800      	ldr	r0, [r0, #0]
10000b06:	2801      	cmp	r0, #1
10000b08:	f04f 42a0 	mov.w	r2, #1342177280	; 0x50000000
10000b0c:	d027      	beq.n	10000b5e <RCC_AXISSConfig+0x5e>
10000b0e:	2802      	cmp	r0, #2
10000b10:	d02a      	beq.n	10000b68 <RCC_AXISSConfig+0x68>
10000b12:	b920      	cbnz	r0, 10000b1e <RCC_AXISSConfig+0x1e>
10000b14:	f8d2 2808 	ldr.w	r2, [r2, #2056]	; 0x808
10000b18:	f012 0f01 	tst.w	r2, #1
10000b1c:	d045      	beq.n	10000baa <RCC_AXISSConfig+0xaa>
10000b1e:	f04f 45a0 	mov.w	r5, #1342177280	; 0x50000000
10000b22:	2803      	cmp	r0, #3
10000b24:	6a6a      	ldr	r2, [r5, #36]	; 0x24
10000b26:	f022 0207 	bic.w	r2, r2, #7
10000b2a:	ea42 0200 	orr.w	r2, r2, r0
10000b2e:	626a      	str	r2, [r5, #36]	; 0x24
10000b30:	d027      	beq.n	10000b82 <RCC_AXISSConfig+0x82>
10000b32:	f7ff fcd1 	bl	100004d8 <HAL_GetTick>
10000b36:	4606      	mov	r6, r0
10000b38:	6a6b      	ldr	r3, [r5, #36]	; 0x24
10000b3a:	2b00      	cmp	r3, #0
10000b3c:	da19      	bge.n	10000b72 <RCC_AXISSConfig+0x72>
10000b3e:	f04f 45a0 	mov.w	r5, #1342177280	; 0x50000000
10000b42:	6862      	ldr	r2, [r4, #4]
10000b44:	6b2b      	ldr	r3, [r5, #48]	; 0x30
10000b46:	f023 0307 	bic.w	r3, r3, #7
10000b4a:	4313      	orrs	r3, r2
10000b4c:	632b      	str	r3, [r5, #48]	; 0x30
10000b4e:	f7ff fcc3 	bl	100004d8 <HAL_GetTick>
10000b52:	4604      	mov	r4, r0
10000b54:	6b2b      	ldr	r3, [r5, #48]	; 0x30
10000b56:	2b00      	cmp	r3, #0
10000b58:	da20      	bge.n	10000b9c <RCC_AXISSConfig+0x9c>
10000b5a:	2000      	movs	r0, #0
10000b5c:	e003      	b.n	10000b66 <RCC_AXISSConfig+0x66>
10000b5e:	f8d2 2808 	ldr.w	r2, [r2, #2056]	; 0x808
10000b62:	05d3      	lsls	r3, r2, #23
10000b64:	d4db      	bmi.n	10000b1e <RCC_AXISSConfig+0x1e>
10000b66:	bd70      	pop	{r4, r5, r6, pc}
10000b68:	f8d2 2094 	ldr.w	r2, [r2, #148]	; 0x94
10000b6c:	f012 0f02 	tst.w	r2, #2
10000b70:	e7d4      	b.n	10000b1c <RCC_AXISSConfig+0x1c>
10000b72:	f7ff fcb1 	bl	100004d8 <HAL_GetTick>
10000b76:	1b80      	subs	r0, r0, r6
10000b78:	f5b0 7f7a 	cmp.w	r0, #1000	; 0x3e8
10000b7c:	d9dc      	bls.n	10000b38 <RCC_AXISSConfig+0x38>
10000b7e:	2003      	movs	r0, #3
10000b80:	e7f1      	b.n	10000b66 <RCC_AXISSConfig+0x66>
10000b82:	f7ff fca9 	bl	100004d8 <HAL_GetTick>
10000b86:	4606      	mov	r6, r0
10000b88:	6a6b      	ldr	r3, [r5, #36]	; 0x24
10000b8a:	2b00      	cmp	r3, #0
10000b8c:	dad7      	bge.n	10000b3e <RCC_AXISSConfig+0x3e>
10000b8e:	f7ff fca3 	bl	100004d8 <HAL_GetTick>
10000b92:	1b80      	subs	r0, r0, r6
10000b94:	f5b0 7f7a 	cmp.w	r0, #1000	; 0x3e8
10000b98:	d9f6      	bls.n	10000b88 <RCC_AXISSConfig+0x88>
10000b9a:	e7f0      	b.n	10000b7e <RCC_AXISSConfig+0x7e>
10000b9c:	f7ff fc9c 	bl	100004d8 <HAL_GetTick>
10000ba0:	1b00      	subs	r0, r0, r4
10000ba2:	f5b0 7f7a 	cmp.w	r0, #1000	; 0x3e8
10000ba6:	d9d5      	bls.n	10000b54 <RCC_AXISSConfig+0x54>
10000ba8:	e7e9      	b.n	10000b7e <RCC_AXISSConfig+0x7e>
10000baa:	2001      	movs	r0, #1
10000bac:	e7db      	b.n	10000b66 <RCC_AXISSConfig+0x66>
	...

10000bb0 <HAL_RCC_GetPLL3ClockFreq>:
10000bb0:	f04f 41a0 	mov.w	r1, #1342177280	; 0x50000000
10000bb4:	b570      	push	{r4, r5, r6, lr}
10000bb6:	f8d1 5820 	ldr.w	r5, [r1, #2080]	; 0x820
10000bba:	f8d1 3884 	ldr.w	r3, [r1, #2180]	; 0x884
10000bbe:	f8d1 688c 	ldr.w	r6, [r1, #2188]	; 0x88c
10000bc2:	f8d1 488c 	ldr.w	r4, [r1, #2188]	; 0x88c
10000bc6:	ed9f 6a36 	vldr	s12, [pc, #216]	; 10000ca0 <HAL_RCC_GetPLL3ClockFreq+0xf0>
10000bca:	f3c3 4305 	ubfx	r3, r3, #16, #6
10000bce:	1c5a      	adds	r2, r3, #1
10000bd0:	f3c4 04cc 	ubfx	r4, r4, #3, #13
10000bd4:	f8d1 3884 	ldr.w	r3, [r1, #2180]	; 0x884
10000bd8:	f3c6 4600 	ubfx	r6, r6, #16, #1
10000bdc:	4374      	muls	r4, r6
10000bde:	ee07 4a90 	vmov	s15, r4
10000be2:	f3c3 0308 	ubfx	r3, r3, #0, #9
10000be6:	3301      	adds	r3, #1
10000be8:	eef8 6ae7 	vcvt.f32.s32	s13, s15
10000bec:	ee07 3a90 	vmov	s15, r3
10000bf0:	eef8 7ae7 	vcvt.f32.s32	s15, s15
10000bf4:	f005 0503 	and.w	r5, r5, #3
10000bf8:	eee6 7a86 	vfma.f32	s15, s13, s12
10000bfc:	2d02      	cmp	r5, #2
10000bfe:	eeb0 7a67 	vmov.f32	s14, s15
10000c02:	d047      	beq.n	10000c94 <HAL_RCC_GetPLL3ClockFreq+0xe4>
10000c04:	2d03      	cmp	r5, #3
10000c06:	d047      	beq.n	10000c98 <HAL_RCC_GetPLL3ClockFreq+0xe8>
10000c08:	2d01      	cmp	r5, #1
10000c0a:	d041      	beq.n	10000c90 <HAL_RCC_GetPLL3ClockFreq+0xe0>
10000c0c:	f8d1 3808 	ldr.w	r3, [r1, #2056]	; 0x808
10000c10:	f013 0f04 	tst.w	r3, #4
10000c14:	4b23      	ldr	r3, [pc, #140]	; (10000ca4 <HAL_RCC_GetPLL3ClockFreq+0xf4>)
10000c16:	d003      	beq.n	10000c20 <HAL_RCC_GetPLL3ClockFreq+0x70>
10000c18:	6989      	ldr	r1, [r1, #24]
10000c1a:	f001 0103 	and.w	r1, r1, #3
10000c1e:	40cb      	lsrs	r3, r1
10000c20:	fbb3 f3f2 	udiv	r3, r3, r2
10000c24:	ee07 3a90 	vmov	s15, r3
10000c28:	eef8 7ae7 	vcvt.f32.s32	s15, s15
10000c2c:	ee67 7a87 	vmul.f32	s15, s15, s14
10000c30:	f04f 42a0 	mov.w	r2, #1342177280	; 0x50000000
10000c34:	f8d2 3888 	ldr.w	r3, [r2, #2184]	; 0x888
10000c38:	f003 037f 	and.w	r3, r3, #127	; 0x7f
10000c3c:	3301      	adds	r3, #1
10000c3e:	ee07 3a10 	vmov	s14, r3
10000c42:	eeb8 7ac7 	vcvt.f32.s32	s14, s14
10000c46:	eec7 6a87 	vdiv.f32	s13, s15, s14
10000c4a:	eefc 6ae6 	vcvt.u32.f32	s13, s13
10000c4e:	edc0 6a00 	vstr	s13, [r0]
10000c52:	f8d2 3888 	ldr.w	r3, [r2, #2184]	; 0x888
10000c56:	f3c3 2306 	ubfx	r3, r3, #8, #7
10000c5a:	3301      	adds	r3, #1
10000c5c:	ee07 3a10 	vmov	s14, r3
10000c60:	eeb8 7ac7 	vcvt.f32.s32	s14, s14
10000c64:	eec7 6a87 	vdiv.f32	s13, s15, s14
10000c68:	eefc 6ae6 	vcvt.u32.f32	s13, s13
10000c6c:	edc0 6a01 	vstr	s13, [r0, #4]
10000c70:	f8d2 3888 	ldr.w	r3, [r2, #2184]	; 0x888
10000c74:	f3c3 4306 	ubfx	r3, r3, #16, #7
10000c78:	3301      	adds	r3, #1
10000c7a:	ee07 3a10 	vmov	s14, r3
10000c7e:	eeb8 7ac7 	vcvt.f32.s32	s14, s14
10000c82:	eec7 6a87 	vdiv.f32	s13, s15, s14
10000c86:	eefc 6ae6 	vcvt.u32.f32	s13, s13
10000c8a:	edc0 6a02 	vstr	s13, [r0, #8]
10000c8e:	bd70      	pop	{r4, r5, r6, pc}
10000c90:	4b05      	ldr	r3, [pc, #20]	; (10000ca8 <HAL_RCC_GetPLL3ClockFreq+0xf8>)
10000c92:	e7c5      	b.n	10000c20 <HAL_RCC_GetPLL3ClockFreq+0x70>
10000c94:	4b05      	ldr	r3, [pc, #20]	; (10000cac <HAL_RCC_GetPLL3ClockFreq+0xfc>)
10000c96:	e7c3      	b.n	10000c20 <HAL_RCC_GetPLL3ClockFreq+0x70>
10000c98:	eddf 7a05 	vldr	s15, [pc, #20]	; 10000cb0 <HAL_RCC_GetPLL3ClockFreq+0x100>
10000c9c:	e7c8      	b.n	10000c30 <HAL_RCC_GetPLL3ClockFreq+0x80>
10000c9e:	bf00      	nop
10000ca0:	39000000 	.word	0x39000000
10000ca4:	03d09000 	.word	0x03d09000
10000ca8:	016e3600 	.word	0x016e3600
10000cac:	003d0900 	.word	0x003d0900
10000cb0:	00000000 	.word	0x00000000

10000cb4 <HAL_RCC_GetMCUSSFreq>:
10000cb4:	b51f      	push	{r0, r1, r2, r3, r4, lr}
10000cb6:	f04f 42a0 	mov.w	r2, #1342177280	; 0x50000000
10000cba:	6c93      	ldr	r3, [r2, #72]	; 0x48
10000cbc:	f003 0303 	and.w	r3, r3, #3
10000cc0:	2b02      	cmp	r3, #2
10000cc2:	d012      	beq.n	10000cea <HAL_RCC_GetMCUSSFreq+0x36>
10000cc4:	2b03      	cmp	r3, #3
10000cc6:	d003      	beq.n	10000cd0 <HAL_RCC_GetMCUSSFreq+0x1c>
10000cc8:	2b01      	cmp	r3, #1
10000cca:	d108      	bne.n	10000cde <HAL_RCC_GetMCUSSFreq+0x2a>
10000ccc:	4808      	ldr	r0, [pc, #32]	; (10000cf0 <HAL_RCC_GetMCUSSFreq+0x3c>)
10000cce:	e003      	b.n	10000cd8 <HAL_RCC_GetMCUSSFreq+0x24>
10000cd0:	a801      	add	r0, sp, #4
10000cd2:	f7ff ff6d 	bl	10000bb0 <HAL_RCC_GetPLL3ClockFreq>
10000cd6:	9801      	ldr	r0, [sp, #4]
10000cd8:	b005      	add	sp, #20
10000cda:	f85d fb04 	ldr.w	pc, [sp], #4
10000cde:	6993      	ldr	r3, [r2, #24]
10000ce0:	4804      	ldr	r0, [pc, #16]	; (10000cf4 <HAL_RCC_GetMCUSSFreq+0x40>)
10000ce2:	f003 0303 	and.w	r3, r3, #3
10000ce6:	40d8      	lsrs	r0, r3
10000ce8:	e7f6      	b.n	10000cd8 <HAL_RCC_GetMCUSSFreq+0x24>
10000cea:	4803      	ldr	r0, [pc, #12]	; (10000cf8 <HAL_RCC_GetMCUSSFreq+0x44>)
10000cec:	e7f4      	b.n	10000cd8 <HAL_RCC_GetMCUSSFreq+0x24>
10000cee:	bf00      	nop
10000cf0:	016e3600 	.word	0x016e3600
10000cf4:	03d09000 	.word	0x03d09000
10000cf8:	003d0900 	.word	0x003d0900

10000cfc <HAL_RCC_GetMCUFreq>:
10000cfc:	f04f 43a0 	mov.w	r3, #1342177280	; 0x50000000
10000d00:	b510      	push	{r4, lr}
10000d02:	f8d3 4830 	ldr.w	r4, [r3, #2096]	; 0x830
10000d06:	f7ff ffd5 	bl	10000cb4 <HAL_RCC_GetMCUSSFreq>
10000d0a:	f004 040f 	and.w	r4, r4, #15
10000d0e:	2c09      	cmp	r4, #9
10000d10:	bf28      	it	cs
10000d12:	2409      	movcs	r4, #9
10000d14:	40e0      	lsrs	r0, r4
10000d16:	bd10      	pop	{r4, pc}

10000d18 <HAL_RCC_OscConfig>:
10000d18:	b570      	push	{r4, r5, r6, lr}
10000d1a:	4604      	mov	r4, r0
10000d1c:	b908      	cbnz	r0, 10000d22 <HAL_RCC_OscConfig+0xa>
10000d1e:	2001      	movs	r0, #1
10000d20:	bd70      	pop	{r4, r5, r6, pc}
10000d22:	6803      	ldr	r3, [r0, #0]
10000d24:	07de      	lsls	r6, r3, #31
10000d26:	d458      	bmi.n	10000dda <HAL_RCC_OscConfig+0xc2>
10000d28:	6823      	ldr	r3, [r4, #0]
10000d2a:	079d      	lsls	r5, r3, #30
10000d2c:	f100 80aa 	bmi.w	10000e84 <HAL_RCC_OscConfig+0x16c>
10000d30:	6823      	ldr	r3, [r4, #0]
10000d32:	06de      	lsls	r6, r3, #27
10000d34:	d531      	bpl.n	10000d9a <HAL_RCC_OscConfig+0x82>
10000d36:	f04f 42a0 	mov.w	r2, #1342177280	; 0x50000000
10000d3a:	f8d2 3820 	ldr.w	r3, [r2, #2080]	; 0x820
10000d3e:	f003 0303 	and.w	r3, r3, #3
10000d42:	2b02      	cmp	r3, #2
10000d44:	d103      	bne.n	10000d4e <HAL_RCC_OscConfig+0x36>
10000d46:	f8d2 3880 	ldr.w	r3, [r2, #2176]	; 0x880
10000d4a:	079d      	lsls	r5, r3, #30
10000d4c:	d415      	bmi.n	10000d7a <HAL_RCC_OscConfig+0x62>
10000d4e:	f04f 43a0 	mov.w	r3, #1342177280	; 0x50000000
10000d52:	6c9a      	ldr	r2, [r3, #72]	; 0x48
10000d54:	f002 0203 	and.w	r2, r2, #3
10000d58:	2a02      	cmp	r2, #2
10000d5a:	d102      	bne.n	10000d62 <HAL_RCC_OscConfig+0x4a>
10000d5c:	6c9a      	ldr	r2, [r3, #72]	; 0x48
10000d5e:	2a00      	cmp	r2, #0
10000d60:	db0b      	blt.n	10000d7a <HAL_RCC_OscConfig+0x62>
10000d62:	f8d3 2824 	ldr.w	r2, [r3, #2084]	; 0x824
10000d66:	f002 0203 	and.w	r2, r2, #3
10000d6a:	2a02      	cmp	r2, #2
10000d6c:	f040 8153 	bne.w	10001016 <HAL_RCC_OscConfig+0x2fe>
10000d70:	f8d3 3894 	ldr.w	r3, [r3, #2196]	; 0x894
10000d74:	0798      	lsls	r0, r3, #30
10000d76:	f140 814e 	bpl.w	10001016 <HAL_RCC_OscConfig+0x2fe>
10000d7a:	f04f 42a0 	mov.w	r2, #1342177280	; 0x50000000
10000d7e:	f8d2 3808 	ldr.w	r3, [r2, #2056]	; 0x808
10000d82:	06d9      	lsls	r1, r3, #27
10000d84:	d502      	bpl.n	10000d8c <HAL_RCC_OscConfig+0x74>
10000d86:	69e3      	ldr	r3, [r4, #28]
10000d88:	2b10      	cmp	r3, #16
10000d8a:	d1c8      	bne.n	10000d1e <HAL_RCC_OscConfig+0x6>
10000d8c:	69d3      	ldr	r3, [r2, #28]
10000d8e:	6a21      	ldr	r1, [r4, #32]
10000d90:	f423 53f8 	bic.w	r3, r3, #7936	; 0x1f00
10000d94:	ea43 2301 	orr.w	r3, r3, r1, lsl #8
10000d98:	61d3      	str	r3, [r2, #28]
10000d9a:	6823      	ldr	r3, [r4, #0]
10000d9c:	071d      	lsls	r5, r3, #28
10000d9e:	f100 8167 	bmi.w	10001070 <HAL_RCC_OscConfig+0x358>
10000da2:	6823      	ldr	r3, [r4, #0]
10000da4:	0758      	lsls	r0, r3, #29
10000da6:	f100 818f 	bmi.w	100010c8 <HAL_RCC_OscConfig+0x3b0>
10000daa:	f104 0024 	add.w	r0, r4, #36	; 0x24
10000dae:	f7ff fd81 	bl	100008b4 <RCC_PLL1_Config>
10000db2:	2800      	cmp	r0, #0
10000db4:	d1b4      	bne.n	10000d20 <HAL_RCC_OscConfig+0x8>
10000db6:	f104 0060 	add.w	r0, r4, #96	; 0x60
10000dba:	f000 fabd 	bl	10001338 <RCCEx_PLL2_Config>
10000dbe:	2800      	cmp	r0, #0
10000dc0:	d1ae      	bne.n	10000d20 <HAL_RCC_OscConfig+0x8>
10000dc2:	f104 009c 	add.w	r0, r4, #156	; 0x9c
10000dc6:	f000 fbab 	bl	10001520 <RCCEx_PLL3_Config>
10000dca:	2800      	cmp	r0, #0
10000dcc:	d1a8      	bne.n	10000d20 <HAL_RCC_OscConfig+0x8>
10000dce:	f104 00d8 	add.w	r0, r4, #216	; 0xd8
10000dd2:	e8bd 4070 	ldmia.w	sp!, {r4, r5, r6, lr}
10000dd6:	f000 bc7d 	b.w	100016d4 <RCCEx_PLL4_Config>
10000dda:	f04f 43a0 	mov.w	r3, #1342177280	; 0x50000000
10000dde:	6a1a      	ldr	r2, [r3, #32]
10000de0:	f002 0203 	and.w	r2, r2, #3
10000de4:	2a01      	cmp	r2, #1
10000de6:	d102      	bne.n	10000dee <HAL_RCC_OscConfig+0xd6>
10000de8:	6a1a      	ldr	r2, [r3, #32]
10000dea:	2a00      	cmp	r2, #0
10000dec:	db36      	blt.n	10000e5c <HAL_RCC_OscConfig+0x144>
10000dee:	6a5a      	ldr	r2, [r3, #36]	; 0x24
10000df0:	f002 0207 	and.w	r2, r2, #7
10000df4:	2a01      	cmp	r2, #1
10000df6:	d102      	bne.n	10000dfe <HAL_RCC_OscConfig+0xe6>
10000df8:	6a5b      	ldr	r3, [r3, #36]	; 0x24
10000dfa:	2b00      	cmp	r3, #0
10000dfc:	db2e      	blt.n	10000e5c <HAL_RCC_OscConfig+0x144>
10000dfe:	f04f 43a0 	mov.w	r3, #1342177280	; 0x50000000
10000e02:	6c9a      	ldr	r2, [r3, #72]	; 0x48
10000e04:	f002 0203 	and.w	r2, r2, #3
10000e08:	2a01      	cmp	r2, #1
10000e0a:	d102      	bne.n	10000e12 <HAL_RCC_OscConfig+0xfa>
10000e0c:	6c9a      	ldr	r2, [r3, #72]	; 0x48
10000e0e:	2a00      	cmp	r2, #0
10000e10:	db24      	blt.n	10000e5c <HAL_RCC_OscConfig+0x144>
10000e12:	6a9a      	ldr	r2, [r3, #40]	; 0x28
10000e14:	f002 0203 	and.w	r2, r2, #3
10000e18:	2a01      	cmp	r2, #1
10000e1a:	d107      	bne.n	10000e2c <HAL_RCC_OscConfig+0x114>
10000e1c:	f8d3 2080 	ldr.w	r2, [r3, #128]	; 0x80
10000e20:	0790      	lsls	r0, r2, #30
10000e22:	d41b      	bmi.n	10000e5c <HAL_RCC_OscConfig+0x144>
10000e24:	f8d3 3094 	ldr.w	r3, [r3, #148]	; 0x94
10000e28:	0799      	lsls	r1, r3, #30
10000e2a:	d417      	bmi.n	10000e5c <HAL_RCC_OscConfig+0x144>
10000e2c:	f04f 42a0 	mov.w	r2, #1342177280	; 0x50000000
10000e30:	f8d2 3820 	ldr.w	r3, [r2, #2080]	; 0x820
10000e34:	f003 0303 	and.w	r3, r3, #3
10000e38:	2b01      	cmp	r3, #1
10000e3a:	d103      	bne.n	10000e44 <HAL_RCC_OscConfig+0x12c>
10000e3c:	f8d2 3880 	ldr.w	r3, [r2, #2176]	; 0x880
10000e40:	079a      	lsls	r2, r3, #30
10000e42:	d40b      	bmi.n	10000e5c <HAL_RCC_OscConfig+0x144>
10000e44:	f04f 42a0 	mov.w	r2, #1342177280	; 0x50000000
10000e48:	f8d2 3824 	ldr.w	r3, [r2, #2084]	; 0x824
10000e4c:	f003 0303 	and.w	r3, r3, #3
10000e50:	2b01      	cmp	r3, #1
10000e52:	d110      	bne.n	10000e76 <HAL_RCC_OscConfig+0x15e>
10000e54:	f8d2 3894 	ldr.w	r3, [r2, #2196]	; 0x894
10000e58:	079b      	lsls	r3, r3, #30
10000e5a:	d50c      	bpl.n	10000e76 <HAL_RCC_OscConfig+0x15e>
10000e5c:	f04f 43a0 	mov.w	r3, #1342177280	; 0x50000000
10000e60:	f8d3 3808 	ldr.w	r3, [r3, #2056]	; 0x808
10000e64:	05de      	lsls	r6, r3, #23
10000e66:	f57f af5f 	bpl.w	10000d28 <HAL_RCC_OscConfig+0x10>
10000e6a:	6863      	ldr	r3, [r4, #4]
10000e6c:	f5b3 7f80 	cmp.w	r3, #256	; 0x100
10000e70:	f47f af55 	bne.w	10000d1e <HAL_RCC_OscConfig+0x6>
10000e74:	e758      	b.n	10000d28 <HAL_RCC_OscConfig+0x10>
10000e76:	6860      	ldr	r0, [r4, #4]
10000e78:	f7ff fc94 	bl	100007a4 <HAL_RCC_HSEConfig>
10000e7c:	2800      	cmp	r0, #0
10000e7e:	f43f af53 	beq.w	10000d28 <HAL_RCC_OscConfig+0x10>
10000e82:	e74d      	b.n	10000d20 <HAL_RCC_OscConfig+0x8>
10000e84:	f04f 43a0 	mov.w	r3, #1342177280	; 0x50000000
10000e88:	6a1a      	ldr	r2, [r3, #32]
10000e8a:	0795      	lsls	r5, r2, #30
10000e8c:	d102      	bne.n	10000e94 <HAL_RCC_OscConfig+0x17c>
10000e8e:	6a1a      	ldr	r2, [r3, #32]
10000e90:	2a00      	cmp	r2, #0
10000e92:	db2c      	blt.n	10000eee <HAL_RCC_OscConfig+0x1d6>
10000e94:	6a5a      	ldr	r2, [r3, #36]	; 0x24
10000e96:	0750      	lsls	r0, r2, #29
10000e98:	d102      	bne.n	10000ea0 <HAL_RCC_OscConfig+0x188>
10000e9a:	6a5b      	ldr	r3, [r3, #36]	; 0x24
10000e9c:	2b00      	cmp	r3, #0
10000e9e:	db26      	blt.n	10000eee <HAL_RCC_OscConfig+0x1d6>
10000ea0:	f04f 43a0 	mov.w	r3, #1342177280	; 0x50000000
10000ea4:	6c9a      	ldr	r2, [r3, #72]	; 0x48
10000ea6:	0791      	lsls	r1, r2, #30
10000ea8:	d102      	bne.n	10000eb0 <HAL_RCC_OscConfig+0x198>
10000eaa:	6c9a      	ldr	r2, [r3, #72]	; 0x48
10000eac:	2a00      	cmp	r2, #0
10000eae:	db1e      	blt.n	10000eee <HAL_RCC_OscConfig+0x1d6>
10000eb0:	6a9a      	ldr	r2, [r3, #40]	; 0x28
10000eb2:	0792      	lsls	r2, r2, #30
10000eb4:	d107      	bne.n	10000ec6 <HAL_RCC_OscConfig+0x1ae>
10000eb6:	f8d3 2080 	ldr.w	r2, [r3, #128]	; 0x80
10000eba:	0796      	lsls	r6, r2, #30
10000ebc:	d417      	bmi.n	10000eee <HAL_RCC_OscConfig+0x1d6>
10000ebe:	f8d3 3094 	ldr.w	r3, [r3, #148]	; 0x94
10000ec2:	079d      	lsls	r5, r3, #30
10000ec4:	d413      	bmi.n	10000eee <HAL_RCC_OscConfig+0x1d6>
10000ec6:	f04f 43a0 	mov.w	r3, #1342177280	; 0x50000000
10000eca:	f8d3 2820 	ldr.w	r2, [r3, #2080]	; 0x820
10000ece:	0790      	lsls	r0, r2, #30
10000ed0:	d103      	bne.n	10000eda <HAL_RCC_OscConfig+0x1c2>
10000ed2:	f8d3 3880 	ldr.w	r3, [r3, #2176]	; 0x880
10000ed6:	0799      	lsls	r1, r3, #30
10000ed8:	d409      	bmi.n	10000eee <HAL_RCC_OscConfig+0x1d6>
10000eda:	f04f 43a0 	mov.w	r3, #1342177280	; 0x50000000
10000ede:	f8d3 2824 	ldr.w	r2, [r3, #2084]	; 0x824
10000ee2:	0792      	lsls	r2, r2, #30
10000ee4:	d155      	bne.n	10000f92 <HAL_RCC_OscConfig+0x27a>
10000ee6:	f8d3 3894 	ldr.w	r3, [r3, #2196]	; 0x894
10000eea:	079b      	lsls	r3, r3, #30
10000eec:	d551      	bpl.n	10000f92 <HAL_RCC_OscConfig+0x27a>
10000eee:	f04f 43a0 	mov.w	r3, #1342177280	; 0x50000000
10000ef2:	f8d3 2808 	ldr.w	r2, [r3, #2056]	; 0x808
10000ef6:	07d6      	lsls	r6, r2, #31
10000ef8:	d503      	bpl.n	10000f02 <HAL_RCC_OscConfig+0x1ea>
10000efa:	68e2      	ldr	r2, [r4, #12]
10000efc:	2a01      	cmp	r2, #1
10000efe:	f47f af0e 	bne.w	10000d1e <HAL_RCC_OscConfig+0x6>
10000f02:	699a      	ldr	r2, [r3, #24]
10000f04:	6921      	ldr	r1, [r4, #16]
10000f06:	f422 42fe 	bic.w	r2, r2, #32512	; 0x7f00
10000f0a:	ea42 2201 	orr.w	r2, r2, r1, lsl #8
10000f0e:	619a      	str	r2, [r3, #24]
10000f10:	6a9a      	ldr	r2, [r3, #40]	; 0x28
10000f12:	0795      	lsls	r5, r2, #30
10000f14:	d113      	bne.n	10000f3e <HAL_RCC_OscConfig+0x226>
10000f16:	f8d3 2080 	ldr.w	r2, [r3, #128]	; 0x80
10000f1a:	0790      	lsls	r0, r2, #30
10000f1c:	d50b      	bpl.n	10000f36 <HAL_RCC_OscConfig+0x21e>
10000f1e:	f7ff feed 	bl	10000cfc <HAL_RCC_GetMCUFreq>
10000f22:	4b75      	ldr	r3, [pc, #468]	; (100010f8 <HAL_RCC_OscConfig+0x3e0>)
10000f24:	6018      	str	r0, [r3, #0]
10000f26:	4b75      	ldr	r3, [pc, #468]	; (100010fc <HAL_RCC_OscConfig+0x3e4>)
10000f28:	6818      	ldr	r0, [r3, #0]
10000f2a:	f7ff fa8d 	bl	10000448 <HAL_InitTick>
10000f2e:	2800      	cmp	r0, #0
10000f30:	f43f aefe 	beq.w	10000d30 <HAL_RCC_OscConfig+0x18>
10000f34:	e6f3      	b.n	10000d1e <HAL_RCC_OscConfig+0x6>
10000f36:	f8d3 3094 	ldr.w	r3, [r3, #148]	; 0x94
10000f3a:	0799      	lsls	r1, r3, #30
10000f3c:	d4ef      	bmi.n	10000f1e <HAL_RCC_OscConfig+0x206>
10000f3e:	f04f 43a0 	mov.w	r3, #1342177280	; 0x50000000
10000f42:	f8d3 2820 	ldr.w	r2, [r3, #2080]	; 0x820
10000f46:	0792      	lsls	r2, r2, #30
10000f48:	d103      	bne.n	10000f52 <HAL_RCC_OscConfig+0x23a>
10000f4a:	f8d3 3880 	ldr.w	r3, [r3, #2176]	; 0x880
10000f4e:	079b      	lsls	r3, r3, #30
10000f50:	d4e5      	bmi.n	10000f1e <HAL_RCC_OscConfig+0x206>
10000f52:	f04f 43a0 	mov.w	r3, #1342177280	; 0x50000000
10000f56:	f8d3 2824 	ldr.w	r2, [r3, #2084]	; 0x824
10000f5a:	0796      	lsls	r6, r2, #30
10000f5c:	d103      	bne.n	10000f66 <HAL_RCC_OscConfig+0x24e>
10000f5e:	f8d3 3894 	ldr.w	r3, [r3, #2196]	; 0x894
10000f62:	079d      	lsls	r5, r3, #30
10000f64:	d4db      	bmi.n	10000f1e <HAL_RCC_OscConfig+0x206>
10000f66:	f04f 45a0 	mov.w	r5, #1342177280	; 0x50000000
10000f6a:	6962      	ldr	r2, [r4, #20]
10000f6c:	69ab      	ldr	r3, [r5, #24]
10000f6e:	f023 0303 	bic.w	r3, r3, #3
10000f72:	4313      	orrs	r3, r2
10000f74:	61ab      	str	r3, [r5, #24]
10000f76:	f7ff faaf 	bl	100004d8 <HAL_GetTick>
10000f7a:	4606      	mov	r6, r0
10000f7c:	f8d5 3808 	ldr.w	r3, [r5, #2056]	; 0x808
10000f80:	0758      	lsls	r0, r3, #29
10000f82:	d4cc      	bmi.n	10000f1e <HAL_RCC_OscConfig+0x206>
10000f84:	f7ff faa8 	bl	100004d8 <HAL_GetTick>
10000f88:	1b80      	subs	r0, r0, r6
10000f8a:	2864      	cmp	r0, #100	; 0x64
10000f8c:	d9f6      	bls.n	10000f7c <HAL_RCC_OscConfig+0x264>
10000f8e:	2003      	movs	r0, #3
10000f90:	e6c6      	b.n	10000d20 <HAL_RCC_OscConfig+0x8>
10000f92:	68e3      	ldr	r3, [r4, #12]
10000f94:	f04f 45a0 	mov.w	r5, #1342177280	; 0x50000000
10000f98:	b36b      	cbz	r3, 10000ff6 <HAL_RCC_OscConfig+0x2de>
10000f9a:	68eb      	ldr	r3, [r5, #12]
10000f9c:	f043 0301 	orr.w	r3, r3, #1
10000fa0:	60eb      	str	r3, [r5, #12]
10000fa2:	f7ff fa99 	bl	100004d8 <HAL_GetTick>
10000fa6:	4606      	mov	r6, r0
10000fa8:	f8d5 3808 	ldr.w	r3, [r5, #2056]	; 0x808
10000fac:	07d9      	lsls	r1, r3, #31
10000fae:	d516      	bpl.n	10000fde <HAL_RCC_OscConfig+0x2c6>
10000fb0:	69ab      	ldr	r3, [r5, #24]
10000fb2:	6962      	ldr	r2, [r4, #20]
10000fb4:	f023 0303 	bic.w	r3, r3, #3
10000fb8:	4313      	orrs	r3, r2
10000fba:	61ab      	str	r3, [r5, #24]
10000fbc:	f7ff fa8c 	bl	100004d8 <HAL_GetTick>
10000fc0:	f04f 45a0 	mov.w	r5, #1342177280	; 0x50000000
10000fc4:	4606      	mov	r6, r0
10000fc6:	f8d5 3808 	ldr.w	r3, [r5, #2056]	; 0x808
10000fca:	075a      	lsls	r2, r3, #29
10000fcc:	d50d      	bpl.n	10000fea <HAL_RCC_OscConfig+0x2d2>
10000fce:	69ab      	ldr	r3, [r5, #24]
10000fd0:	6922      	ldr	r2, [r4, #16]
10000fd2:	f423 43fe 	bic.w	r3, r3, #32512	; 0x7f00
10000fd6:	ea43 2302 	orr.w	r3, r3, r2, lsl #8
10000fda:	61ab      	str	r3, [r5, #24]
10000fdc:	e6a8      	b.n	10000d30 <HAL_RCC_OscConfig+0x18>
10000fde:	f7ff fa7b 	bl	100004d8 <HAL_GetTick>
10000fe2:	1b80      	subs	r0, r0, r6
10000fe4:	2864      	cmp	r0, #100	; 0x64
10000fe6:	d9df      	bls.n	10000fa8 <HAL_RCC_OscConfig+0x290>
10000fe8:	e7d1      	b.n	10000f8e <HAL_RCC_OscConfig+0x276>
10000fea:	f7ff fa75 	bl	100004d8 <HAL_GetTick>
10000fee:	1b80      	subs	r0, r0, r6
10000ff0:	2864      	cmp	r0, #100	; 0x64
10000ff2:	d9e8      	bls.n	10000fc6 <HAL_RCC_OscConfig+0x2ae>
10000ff4:	e7cb      	b.n	10000f8e <HAL_RCC_OscConfig+0x276>
10000ff6:	2301      	movs	r3, #1
10000ff8:	612b      	str	r3, [r5, #16]
10000ffa:	f7ff fa6d 	bl	100004d8 <HAL_GetTick>
10000ffe:	4606      	mov	r6, r0
10001000:	f8d5 3808 	ldr.w	r3, [r5, #2056]	; 0x808
10001004:	07db      	lsls	r3, r3, #31
10001006:	f57f ae93 	bpl.w	10000d30 <HAL_RCC_OscConfig+0x18>
1000100a:	f7ff fa65 	bl	100004d8 <HAL_GetTick>
1000100e:	1b80      	subs	r0, r0, r6
10001010:	2864      	cmp	r0, #100	; 0x64
10001012:	d9f5      	bls.n	10001000 <HAL_RCC_OscConfig+0x2e8>
10001014:	e7bb      	b.n	10000f8e <HAL_RCC_OscConfig+0x276>
10001016:	69e3      	ldr	r3, [r4, #28]
10001018:	f04f 45a0 	mov.w	r5, #1342177280	; 0x50000000
1000101c:	b1c3      	cbz	r3, 10001050 <HAL_RCC_OscConfig+0x338>
1000101e:	68eb      	ldr	r3, [r5, #12]
10001020:	f043 0310 	orr.w	r3, r3, #16
10001024:	60eb      	str	r3, [r5, #12]
10001026:	f7ff fa57 	bl	100004d8 <HAL_GetTick>
1000102a:	4606      	mov	r6, r0
1000102c:	f8d5 3808 	ldr.w	r3, [r5, #2056]	; 0x808
10001030:	06da      	lsls	r2, r3, #27
10001032:	d507      	bpl.n	10001044 <HAL_RCC_OscConfig+0x32c>
10001034:	69eb      	ldr	r3, [r5, #28]
10001036:	6a22      	ldr	r2, [r4, #32]
10001038:	f423 53f8 	bic.w	r3, r3, #7936	; 0x1f00
1000103c:	ea43 2302 	orr.w	r3, r3, r2, lsl #8
10001040:	61eb      	str	r3, [r5, #28]
10001042:	e6aa      	b.n	10000d9a <HAL_RCC_OscConfig+0x82>
10001044:	f7ff fa48 	bl	100004d8 <HAL_GetTick>
10001048:	1b80      	subs	r0, r0, r6
1000104a:	2864      	cmp	r0, #100	; 0x64
1000104c:	d9ee      	bls.n	1000102c <HAL_RCC_OscConfig+0x314>
1000104e:	e79e      	b.n	10000f8e <HAL_RCC_OscConfig+0x276>
10001050:	2310      	movs	r3, #16
10001052:	612b      	str	r3, [r5, #16]
10001054:	f7ff fa40 	bl	100004d8 <HAL_GetTick>
10001058:	4606      	mov	r6, r0
1000105a:	f8d5 3808 	ldr.w	r3, [r5, #2056]	; 0x808
1000105e:	06db      	lsls	r3, r3, #27
10001060:	f57f ae9b 	bpl.w	10000d9a <HAL_RCC_OscConfig+0x82>
10001064:	f7ff fa38 	bl	100004d8 <HAL_GetTick>
10001068:	1b80      	subs	r0, r0, r6
1000106a:	2864      	cmp	r0, #100	; 0x64
1000106c:	d9f5      	bls.n	1000105a <HAL_RCC_OscConfig+0x342>
1000106e:	e78e      	b.n	10000f8e <HAL_RCC_OscConfig+0x276>
10001070:	69a3      	ldr	r3, [r4, #24]
10001072:	f04f 45a0 	mov.w	r5, #1342177280	; 0x50000000
10001076:	b19b      	cbz	r3, 100010a0 <HAL_RCC_OscConfig+0x388>
10001078:	f8d5 3144 	ldr.w	r3, [r5, #324]	; 0x144
1000107c:	f043 0301 	orr.w	r3, r3, #1
10001080:	f8c5 3144 	str.w	r3, [r5, #324]	; 0x144
10001084:	f7ff fa28 	bl	100004d8 <HAL_GetTick>
10001088:	4606      	mov	r6, r0
1000108a:	f8d5 3144 	ldr.w	r3, [r5, #324]	; 0x144
1000108e:	0799      	lsls	r1, r3, #30
10001090:	f53f ae87 	bmi.w	10000da2 <HAL_RCC_OscConfig+0x8a>
10001094:	f7ff fa20 	bl	100004d8 <HAL_GetTick>
10001098:	1b80      	subs	r0, r0, r6
1000109a:	2864      	cmp	r0, #100	; 0x64
1000109c:	d9f5      	bls.n	1000108a <HAL_RCC_OscConfig+0x372>
1000109e:	e776      	b.n	10000f8e <HAL_RCC_OscConfig+0x276>
100010a0:	f8d5 3144 	ldr.w	r3, [r5, #324]	; 0x144
100010a4:	f023 0301 	bic.w	r3, r3, #1
100010a8:	f8c5 3144 	str.w	r3, [r5, #324]	; 0x144
100010ac:	f7ff fa14 	bl	100004d8 <HAL_GetTick>
100010b0:	4606      	mov	r6, r0
100010b2:	f8d5 3144 	ldr.w	r3, [r5, #324]	; 0x144
100010b6:	079a      	lsls	r2, r3, #30
100010b8:	f57f ae73 	bpl.w	10000da2 <HAL_RCC_OscConfig+0x8a>
100010bc:	f7ff fa0c 	bl	100004d8 <HAL_GetTick>
100010c0:	1b80      	subs	r0, r0, r6
100010c2:	2864      	cmp	r0, #100	; 0x64
100010c4:	d9f5      	bls.n	100010b2 <HAL_RCC_OscConfig+0x39a>
100010c6:	e762      	b.n	10000f8e <HAL_RCC_OscConfig+0x276>
100010c8:	4d0d      	ldr	r5, [pc, #52]	; (10001100 <HAL_RCC_OscConfig+0x3e8>)
100010ca:	682b      	ldr	r3, [r5, #0]
100010cc:	f443 7380 	orr.w	r3, r3, #256	; 0x100
100010d0:	602b      	str	r3, [r5, #0]
100010d2:	f7ff fa01 	bl	100004d8 <HAL_GetTick>
100010d6:	4606      	mov	r6, r0
100010d8:	682b      	ldr	r3, [r5, #0]
100010da:	05db      	lsls	r3, r3, #23
100010dc:	d506      	bpl.n	100010ec <HAL_RCC_OscConfig+0x3d4>
100010de:	68a0      	ldr	r0, [r4, #8]
100010e0:	f7ff fb9d 	bl	1000081e <HAL_RCC_LSEConfig>
100010e4:	2800      	cmp	r0, #0
100010e6:	f43f ae60 	beq.w	10000daa <HAL_RCC_OscConfig+0x92>
100010ea:	e619      	b.n	10000d20 <HAL_RCC_OscConfig+0x8>
100010ec:	f7ff f9f4 	bl	100004d8 <HAL_GetTick>
100010f0:	1b80      	subs	r0, r0, r6
100010f2:	2864      	cmp	r0, #100	; 0x64
100010f4:	d9f0      	bls.n	100010d8 <HAL_RCC_OscConfig+0x3c0>
100010f6:	e74a      	b.n	10000f8e <HAL_RCC_OscConfig+0x276>
100010f8:	10020000 	.word	0x10020000
100010fc:	10020008 	.word	0x10020008
10001100:	50001000 	.word	0x50001000

10001104 <RCC_MCUConfig>:
10001104:	6801      	ldr	r1, [r0, #0]
10001106:	b5f8      	push	{r3, r4, r5, r6, r7, lr}
10001108:	f04f 42a0 	mov.w	r2, #1342177280	; 0x50000000
1000110c:	4605      	mov	r5, r0
1000110e:	2903      	cmp	r1, #3
10001110:	d808      	bhi.n	10001124 <RCC_MCUConfig+0x20>
10001112:	e8df f001 	tbb	[pc, r1]
10001116:	3502      	.short	0x3502
10001118:	3f3a      	.short	0x3f3a
1000111a:	f8d2 3808 	ldr.w	r3, [r2, #2056]	; 0x808
1000111e:	f013 0f01 	tst.w	r3, #1
10001122:	d04b      	beq.n	100011bc <RCC_MCUConfig+0xb8>
10001124:	f04f 44a0 	mov.w	r4, #1342177280	; 0x50000000
10001128:	6ca3      	ldr	r3, [r4, #72]	; 0x48
1000112a:	f023 0303 	bic.w	r3, r3, #3
1000112e:	430b      	orrs	r3, r1
10001130:	64a3      	str	r3, [r4, #72]	; 0x48
10001132:	f7ff f9d1 	bl	100004d8 <HAL_GetTick>
10001136:	4606      	mov	r6, r0
10001138:	6ca3      	ldr	r3, [r4, #72]	; 0x48
1000113a:	2b00      	cmp	r3, #0
1000113c:	da2f      	bge.n	1000119e <RCC_MCUConfig+0x9a>
1000113e:	f7ff fddd 	bl	10000cfc <HAL_RCC_GetMCUFreq>
10001142:	4f1f      	ldr	r7, [pc, #124]	; (100011c0 <RCC_MCUConfig+0xbc>)
10001144:	4e1f      	ldr	r6, [pc, #124]	; (100011c4 <RCC_MCUConfig+0xc0>)
10001146:	6038      	str	r0, [r7, #0]
10001148:	6830      	ldr	r0, [r6, #0]
1000114a:	f7ff f97d 	bl	10000448 <HAL_InitTick>
1000114e:	f8d4 3830 	ldr.w	r3, [r4, #2096]	; 0x830
10001152:	686a      	ldr	r2, [r5, #4]
10001154:	f023 030f 	bic.w	r3, r3, #15
10001158:	4313      	orrs	r3, r2
1000115a:	f8c4 3830 	str.w	r3, [r4, #2096]	; 0x830
1000115e:	f7ff f9bb 	bl	100004d8 <HAL_GetTick>
10001162:	f04f 45a0 	mov.w	r5, #1342177280	; 0x50000000
10001166:	4604      	mov	r4, r0
10001168:	f8d5 3830 	ldr.w	r3, [r5, #2096]	; 0x830
1000116c:	2b00      	cmp	r3, #0
1000116e:	da1e      	bge.n	100011ae <RCC_MCUConfig+0xaa>
10001170:	f7ff fdc4 	bl	10000cfc <HAL_RCC_GetMCUFreq>
10001174:	6038      	str	r0, [r7, #0]
10001176:	6830      	ldr	r0, [r6, #0]
10001178:	f7ff f966 	bl	10000448 <HAL_InitTick>
1000117c:	2000      	movs	r0, #0
1000117e:	e015      	b.n	100011ac <RCC_MCUConfig+0xa8>
10001180:	f8d2 3808 	ldr.w	r3, [r2, #2056]	; 0x808
10001184:	f413 7f80 	tst.w	r3, #256	; 0x100
10001188:	e7cb      	b.n	10001122 <RCC_MCUConfig+0x1e>
1000118a:	f8d2 3808 	ldr.w	r3, [r2, #2056]	; 0x808
1000118e:	f013 0f10 	tst.w	r3, #16
10001192:	e7c6      	b.n	10001122 <RCC_MCUConfig+0x1e>
10001194:	f8d2 3880 	ldr.w	r3, [r2, #2176]	; 0x880
10001198:	f013 0f02 	tst.w	r3, #2
1000119c:	e7c1      	b.n	10001122 <RCC_MCUConfig+0x1e>
1000119e:	f7ff f99b 	bl	100004d8 <HAL_GetTick>
100011a2:	1b80      	subs	r0, r0, r6
100011a4:	f5b0 7f7a 	cmp.w	r0, #1000	; 0x3e8
100011a8:	d9c6      	bls.n	10001138 <RCC_MCUConfig+0x34>
100011aa:	2003      	movs	r0, #3
100011ac:	bdf8      	pop	{r3, r4, r5, r6, r7, pc}
100011ae:	f7ff f993 	bl	100004d8 <HAL_GetTick>
100011b2:	1b00      	subs	r0, r0, r4
100011b4:	f5b0 7f7a 	cmp.w	r0, #1000	; 0x3e8
100011b8:	d9d6      	bls.n	10001168 <RCC_MCUConfig+0x64>
100011ba:	e7f6      	b.n	100011aa <RCC_MCUConfig+0xa6>
100011bc:	2001      	movs	r0, #1
100011be:	e7f5      	b.n	100011ac <RCC_MCUConfig+0xa8>
100011c0:	10020000 	.word	0x10020000
100011c4:	10020008 	.word	0x10020008

100011c8 <HAL_RCC_ClockConfig>:
100011c8:	b570      	push	{r4, r5, r6, lr}
100011ca:	4604      	mov	r4, r0
100011cc:	2800      	cmp	r0, #0
100011ce:	f000 809f 	beq.w	10001310 <HAL_RCC_ClockConfig+0x148>
100011d2:	6803      	ldr	r3, [r0, #0]
100011d4:	07da      	lsls	r2, r3, #31
100011d6:	d471      	bmi.n	100012bc <HAL_RCC_ClockConfig+0xf4>
100011d8:	6823      	ldr	r3, [r4, #0]
100011da:	079b      	lsls	r3, r3, #30
100011dc:	d505      	bpl.n	100011ea <HAL_RCC_ClockConfig+0x22>
100011de:	f104 000c 	add.w	r0, r4, #12
100011e2:	f7ff fc8d 	bl	10000b00 <RCC_AXISSConfig>
100011e6:	2800      	cmp	r0, #0
100011e8:	d16d      	bne.n	100012c6 <HAL_RCC_ClockConfig+0xfe>
100011ea:	6823      	ldr	r3, [r4, #0]
100011ec:	075e      	lsls	r6, r3, #29
100011ee:	d505      	bpl.n	100011fc <HAL_RCC_ClockConfig+0x34>
100011f0:	f104 0014 	add.w	r0, r4, #20
100011f4:	f7ff ff86 	bl	10001104 <RCC_MCUConfig>
100011f8:	2800      	cmp	r0, #0
100011fa:	d164      	bne.n	100012c6 <HAL_RCC_ClockConfig+0xfe>
100011fc:	6823      	ldr	r3, [r4, #0]
100011fe:	071d      	lsls	r5, r3, #28
10001200:	d50d      	bpl.n	1000121e <HAL_RCC_ClockConfig+0x56>
10001202:	f04f 45a0 	mov.w	r5, #1342177280	; 0x50000000
10001206:	69e2      	ldr	r2, [r4, #28]
10001208:	6beb      	ldr	r3, [r5, #60]	; 0x3c
1000120a:	f023 0307 	bic.w	r3, r3, #7
1000120e:	4313      	orrs	r3, r2
10001210:	63eb      	str	r3, [r5, #60]	; 0x3c
10001212:	f7ff f961 	bl	100004d8 <HAL_GetTick>
10001216:	4606      	mov	r6, r0
10001218:	6beb      	ldr	r3, [r5, #60]	; 0x3c
1000121a:	2b00      	cmp	r3, #0
1000121c:	da54      	bge.n	100012c8 <HAL_RCC_ClockConfig+0x100>
1000121e:	6823      	ldr	r3, [r4, #0]
10001220:	06d8      	lsls	r0, r3, #27
10001222:	d50d      	bpl.n	10001240 <HAL_RCC_ClockConfig+0x78>
10001224:	f04f 45a0 	mov.w	r5, #1342177280	; 0x50000000
10001228:	6a22      	ldr	r2, [r4, #32]
1000122a:	6c2b      	ldr	r3, [r5, #64]	; 0x40
1000122c:	f023 0307 	bic.w	r3, r3, #7
10001230:	4313      	orrs	r3, r2
10001232:	642b      	str	r3, [r5, #64]	; 0x40
10001234:	f7ff f950 	bl	100004d8 <HAL_GetTick>
10001238:	4606      	mov	r6, r0
1000123a:	6c2b      	ldr	r3, [r5, #64]	; 0x40
1000123c:	2b00      	cmp	r3, #0
1000123e:	da4b      	bge.n	100012d8 <HAL_RCC_ClockConfig+0x110>
10001240:	6823      	ldr	r3, [r4, #0]
10001242:	0699      	lsls	r1, r3, #26
10001244:	d510      	bpl.n	10001268 <HAL_RCC_ClockConfig+0xa0>
10001246:	f04f 45a0 	mov.w	r5, #1342177280	; 0x50000000
1000124a:	6a62      	ldr	r2, [r4, #36]	; 0x24
1000124c:	f8d5 3834 	ldr.w	r3, [r5, #2100]	; 0x834
10001250:	f023 0307 	bic.w	r3, r3, #7
10001254:	4313      	orrs	r3, r2
10001256:	f8c5 3834 	str.w	r3, [r5, #2100]	; 0x834
1000125a:	f7ff f93d 	bl	100004d8 <HAL_GetTick>
1000125e:	4606      	mov	r6, r0
10001260:	f8d5 3834 	ldr.w	r3, [r5, #2100]	; 0x834
10001264:	2b00      	cmp	r3, #0
10001266:	da3e      	bge.n	100012e6 <HAL_RCC_ClockConfig+0x11e>
10001268:	6823      	ldr	r3, [r4, #0]
1000126a:	065a      	lsls	r2, r3, #25
1000126c:	d510      	bpl.n	10001290 <HAL_RCC_ClockConfig+0xc8>
1000126e:	f04f 45a0 	mov.w	r5, #1342177280	; 0x50000000
10001272:	6aa2      	ldr	r2, [r4, #40]	; 0x28
10001274:	f8d5 3838 	ldr.w	r3, [r5, #2104]	; 0x838
10001278:	f023 0307 	bic.w	r3, r3, #7
1000127c:	4313      	orrs	r3, r2
1000127e:	f8c5 3838 	str.w	r3, [r5, #2104]	; 0x838
10001282:	f7ff f929 	bl	100004d8 <HAL_GetTick>
10001286:	4606      	mov	r6, r0
10001288:	f8d5 3838 	ldr.w	r3, [r5, #2104]	; 0x838
1000128c:	2b00      	cmp	r3, #0
1000128e:	da31      	bge.n	100012f4 <HAL_RCC_ClockConfig+0x12c>
10001290:	6823      	ldr	r3, [r4, #0]
10001292:	061b      	lsls	r3, r3, #24
10001294:	d510      	bpl.n	100012b8 <HAL_RCC_ClockConfig+0xf0>
10001296:	f04f 45a0 	mov.w	r5, #1342177280	; 0x50000000
1000129a:	6ae2      	ldr	r2, [r4, #44]	; 0x2c
1000129c:	f8d5 383c 	ldr.w	r3, [r5, #2108]	; 0x83c
100012a0:	f023 0307 	bic.w	r3, r3, #7
100012a4:	4313      	orrs	r3, r2
100012a6:	f8c5 383c 	str.w	r3, [r5, #2108]	; 0x83c
100012aa:	f7ff f915 	bl	100004d8 <HAL_GetTick>
100012ae:	4604      	mov	r4, r0
100012b0:	f8d5 383c 	ldr.w	r3, [r5, #2108]	; 0x83c
100012b4:	2b00      	cmp	r3, #0
100012b6:	da24      	bge.n	10001302 <HAL_RCC_ClockConfig+0x13a>
100012b8:	2000      	movs	r0, #0
100012ba:	e004      	b.n	100012c6 <HAL_RCC_ClockConfig+0xfe>
100012bc:	3004      	adds	r0, #4
100012be:	f7ff fbdd 	bl	10000a7c <RCC_MPUConfig>
100012c2:	2800      	cmp	r0, #0
100012c4:	d088      	beq.n	100011d8 <HAL_RCC_ClockConfig+0x10>
100012c6:	bd70      	pop	{r4, r5, r6, pc}
100012c8:	f7ff f906 	bl	100004d8 <HAL_GetTick>
100012cc:	1b80      	subs	r0, r0, r6
100012ce:	f5b0 7f7a 	cmp.w	r0, #1000	; 0x3e8
100012d2:	d9a1      	bls.n	10001218 <HAL_RCC_ClockConfig+0x50>
100012d4:	2003      	movs	r0, #3
100012d6:	e7f6      	b.n	100012c6 <HAL_RCC_ClockConfig+0xfe>
100012d8:	f7ff f8fe 	bl	100004d8 <HAL_GetTick>
100012dc:	1b80      	subs	r0, r0, r6
100012de:	f5b0 7f7a 	cmp.w	r0, #1000	; 0x3e8
100012e2:	d9aa      	bls.n	1000123a <HAL_RCC_ClockConfig+0x72>
100012e4:	e7f6      	b.n	100012d4 <HAL_RCC_ClockConfig+0x10c>
100012e6:	f7ff f8f7 	bl	100004d8 <HAL_GetTick>
100012ea:	1b80      	subs	r0, r0, r6
100012ec:	f5b0 7f7a 	cmp.w	r0, #1000	; 0x3e8
100012f0:	d9b6      	bls.n	10001260 <HAL_RCC_ClockConfig+0x98>
100012f2:	e7ef      	b.n	100012d4 <HAL_RCC_ClockConfig+0x10c>
100012f4:	f7ff f8f0 	bl	100004d8 <HAL_GetTick>
100012f8:	1b80      	subs	r0, r0, r6
100012fa:	f5b0 7f7a 	cmp.w	r0, #1000	; 0x3e8
100012fe:	d9c3      	bls.n	10001288 <HAL_RCC_ClockConfig+0xc0>
10001300:	e7e8      	b.n	100012d4 <HAL_RCC_ClockConfig+0x10c>
10001302:	f7ff f8e9 	bl	100004d8 <HAL_GetTick>
10001306:	1b00      	subs	r0, r0, r4
10001308:	f5b0 7f7a 	cmp.w	r0, #1000	; 0x3e8
1000130c:	d9d0      	bls.n	100012b0 <HAL_RCC_ClockConfig+0xe8>
1000130e:	e7e1      	b.n	100012d4 <HAL_RCC_ClockConfig+0x10c>
10001310:	2001      	movs	r0, #1
10001312:	e7d8      	b.n	100012c6 <HAL_RCC_ClockConfig+0xfe>

10001314 <HAL_RCC_GetSystemCoreClockFreq>:
10001314:	f7ff bcf2 	b.w	10000cfc <HAL_RCC_GetMCUFreq>

10001318 <HAL_RCC_WAKEUP_Callback>:
10001318:	4770      	bx	lr

1000131a <HAL_RCC_WAKEUP_IRQHandler>:
1000131a:	b508      	push	{r3, lr}
1000131c:	f04f 43a0 	mov.w	r3, #1342177280	; 0x50000000
10001320:	f8d3 2c18 	ldr.w	r2, [r3, #3096]	; 0xc18
10001324:	02d2      	lsls	r2, r2, #11
10001326:	d505      	bpl.n	10001334 <HAL_RCC_WAKEUP_IRQHandler+0x1a>
10001328:	f44f 1280 	mov.w	r2, #1048576	; 0x100000
1000132c:	f8c3 2c18 	str.w	r2, [r3, #3096]	; 0xc18
10001330:	f7ff fff2 	bl	10001318 <HAL_RCC_WAKEUP_Callback>
10001334:	bd08      	pop	{r3, pc}
	...

10001338 <RCCEx_PLL2_Config>:
10001338:	6802      	ldr	r2, [r0, #0]
1000133a:	b570      	push	{r4, r5, r6, lr}
1000133c:	4604      	mov	r4, r0
1000133e:	b90a      	cbnz	r2, 10001344 <RCCEx_PLL2_Config+0xc>
10001340:	2000      	movs	r0, #0
10001342:	e00a      	b.n	1000135a <RCCEx_PLL2_Config+0x22>
10001344:	f04f 41a0 	mov.w	r1, #1342177280	; 0x50000000
10001348:	6a4b      	ldr	r3, [r1, #36]	; 0x24
1000134a:	f003 0307 	and.w	r3, r3, #7
1000134e:	2b02      	cmp	r3, #2
10001350:	d104      	bne.n	1000135c <RCCEx_PLL2_Config+0x24>
10001352:	6a4b      	ldr	r3, [r1, #36]	; 0x24
10001354:	2b00      	cmp	r3, #0
10001356:	da01      	bge.n	1000135c <RCCEx_PLL2_Config+0x24>
10001358:	2001      	movs	r0, #1
1000135a:	bd70      	pop	{r4, r5, r6, pc}
1000135c:	2a02      	cmp	r2, #2
1000135e:	f04f 45a0 	mov.w	r5, #1342177280	; 0x50000000
10001362:	f040 80be 	bne.w	100014e2 <RCCEx_PLL2_Config+0x1aa>
10001366:	6aab      	ldr	r3, [r5, #40]	; 0x28
10001368:	0798      	lsls	r0, r3, #30
1000136a:	d004      	beq.n	10001376 <RCCEx_PLL2_Config+0x3e>
1000136c:	6aab      	ldr	r3, [r5, #40]	; 0x28
1000136e:	f003 0303 	and.w	r3, r3, #3
10001372:	2b01      	cmp	r3, #1
10001374:	d1f0      	bne.n	10001358 <RCCEx_PLL2_Config+0x20>
10001376:	f04f 45a0 	mov.w	r5, #1342177280	; 0x50000000
1000137a:	f8d5 3094 	ldr.w	r3, [r5, #148]	; 0x94
1000137e:	f023 0370 	bic.w	r3, r3, #112	; 0x70
10001382:	f8c5 3094 	str.w	r3, [r5, #148]	; 0x94
10001386:	f8d5 3094 	ldr.w	r3, [r5, #148]	; 0x94
1000138a:	f023 0301 	bic.w	r3, r3, #1
1000138e:	f8c5 3094 	str.w	r3, [r5, #148]	; 0x94
10001392:	f7ff f8a1 	bl	100004d8 <HAL_GetTick>
10001396:	4606      	mov	r6, r0
10001398:	f8d5 3094 	ldr.w	r3, [r5, #148]	; 0x94
1000139c:	0799      	lsls	r1, r3, #30
1000139e:	f100 8087 	bmi.w	100014b0 <RCCEx_PLL2_Config+0x178>
100013a2:	6a2b      	ldr	r3, [r5, #32]
100013a4:	6860      	ldr	r0, [r4, #4]
100013a6:	f003 0303 	and.w	r3, r3, #3
100013aa:	2b02      	cmp	r3, #2
100013ac:	d102      	bne.n	100013b4 <RCCEx_PLL2_Config+0x7c>
100013ae:	6a2b      	ldr	r3, [r5, #32]
100013b0:	2b00      	cmp	r3, #0
100013b2:	db09      	blt.n	100013c8 <RCCEx_PLL2_Config+0x90>
100013b4:	f04f 42a0 	mov.w	r2, #1342177280	; 0x50000000
100013b8:	6a11      	ldr	r1, [r2, #32]
100013ba:	f001 0103 	and.w	r1, r1, #3
100013be:	2903      	cmp	r1, #3
100013c0:	d17e      	bne.n	100014c0 <RCCEx_PLL2_Config+0x188>
100013c2:	6a13      	ldr	r3, [r2, #32]
100013c4:	2b00      	cmp	r3, #0
100013c6:	da7b      	bge.n	100014c0 <RCCEx_PLL2_Config+0x188>
100013c8:	f04f 43a0 	mov.w	r3, #1342177280	; 0x50000000
100013cc:	6a9a      	ldr	r2, [r3, #40]	; 0x28
100013ce:	f002 0203 	and.w	r2, r2, #3
100013d2:	4290      	cmp	r0, r2
100013d4:	d1c0      	bne.n	10001358 <RCCEx_PLL2_Config+0x20>
100013d6:	f04f 43a0 	mov.w	r3, #1342177280	; 0x50000000
100013da:	68e2      	ldr	r2, [r4, #12]
100013dc:	f8d3 0098 	ldr.w	r0, [r3, #152]	; 0x98
100013e0:	494d      	ldr	r1, [pc, #308]	; (10001518 <RCCEx_PLL2_Config+0x1e0>)
100013e2:	3a01      	subs	r2, #1
100013e4:	4001      	ands	r1, r0
100013e6:	430a      	orrs	r2, r1
100013e8:	68a1      	ldr	r1, [r4, #8]
100013ea:	484c      	ldr	r0, [pc, #304]	; (1000151c <RCCEx_PLL2_Config+0x1e4>)
100013ec:	3901      	subs	r1, #1
100013ee:	ea42 4201 	orr.w	r2, r2, r1, lsl #16
100013f2:	f8c3 2098 	str.w	r2, [r3, #152]	; 0x98
100013f6:	f8d3 109c 	ldr.w	r1, [r3, #156]	; 0x9c
100013fa:	6922      	ldr	r2, [r4, #16]
100013fc:	f021 117f 	bic.w	r1, r1, #8323199	; 0x7f007f
10001400:	f421 41fe 	bic.w	r1, r1, #32512	; 0x7f00
10001404:	3a01      	subs	r2, #1
10001406:	430a      	orrs	r2, r1
10001408:	6961      	ldr	r1, [r4, #20]
1000140a:	3901      	subs	r1, #1
1000140c:	ea42 2201 	orr.w	r2, r2, r1, lsl #8
10001410:	69a1      	ldr	r1, [r4, #24]
10001412:	3901      	subs	r1, #1
10001414:	ea42 4201 	orr.w	r2, r2, r1, lsl #16
10001418:	f8c3 209c 	str.w	r2, [r3, #156]	; 0x9c
1000141c:	f8d3 20a0 	ldr.w	r2, [r3, #160]	; 0xa0
10001420:	f422 3280 	bic.w	r2, r2, #65536	; 0x10000
10001424:	f8c3 20a0 	str.w	r2, [r3, #160]	; 0xa0
10001428:	6a61      	ldr	r1, [r4, #36]	; 0x24
1000142a:	f031 0202 	bics.w	r2, r1, #2
1000142e:	f8d3 20a0 	ldr.w	r2, [r3, #160]	; 0xa0
10001432:	bf1b      	ittet	ne
10001434:	6a25      	ldrne	r5, [r4, #32]
10001436:	4002      	andne	r2, r0
10001438:	4002      	andeq	r2, r0
1000143a:	ea42 02c5 	orrne.w	r2, r2, r5, lsl #3
1000143e:	f8c3 20a0 	str.w	r2, [r3, #160]	; 0xa0
10001442:	f04f 42a0 	mov.w	r2, #1342177280	; 0x50000000
10001446:	2902      	cmp	r1, #2
10001448:	f8d2 30a0 	ldr.w	r3, [r2, #160]	; 0xa0
1000144c:	f443 3380 	orr.w	r3, r3, #65536	; 0x10000
10001450:	f8c2 30a0 	str.w	r3, [r2, #160]	; 0xa0
10001454:	d13a      	bne.n	100014cc <RCCEx_PLL2_Config+0x194>
10001456:	f8d2 10a4 	ldr.w	r1, [r2, #164]	; 0xa4
1000145a:	6aa3      	ldr	r3, [r4, #40]	; 0x28
1000145c:	6b20      	ldr	r0, [r4, #48]	; 0x30
1000145e:	f001 4100 	and.w	r1, r1, #2147483648	; 0x80000000
10001462:	4303      	orrs	r3, r0
10001464:	430b      	orrs	r3, r1
10001466:	6ae1      	ldr	r1, [r4, #44]	; 0x2c
10001468:	430b      	orrs	r3, r1
1000146a:	6b61      	ldr	r1, [r4, #52]	; 0x34
1000146c:	430b      	orrs	r3, r1
1000146e:	6ba1      	ldr	r1, [r4, #56]	; 0x38
10001470:	ea43 4301 	orr.w	r3, r3, r1, lsl #16
10001474:	f8c2 30a4 	str.w	r3, [r2, #164]	; 0xa4
10001478:	f8d2 3094 	ldr.w	r3, [r2, #148]	; 0x94
1000147c:	f043 0304 	orr.w	r3, r3, #4
10001480:	f04f 44a0 	mov.w	r4, #1342177280	; 0x50000000
10001484:	f8c2 3094 	str.w	r3, [r2, #148]	; 0x94
10001488:	f8d4 3094 	ldr.w	r3, [r4, #148]	; 0x94
1000148c:	f043 0301 	orr.w	r3, r3, #1
10001490:	f8c4 3094 	str.w	r3, [r4, #148]	; 0x94
10001494:	f7ff f820 	bl	100004d8 <HAL_GetTick>
10001498:	4605      	mov	r5, r0
1000149a:	f8d4 3094 	ldr.w	r3, [r4, #148]	; 0x94
1000149e:	079a      	lsls	r2, r3, #30
100014a0:	d519      	bpl.n	100014d6 <RCCEx_PLL2_Config+0x19e>
100014a2:	f8d4 3094 	ldr.w	r3, [r4, #148]	; 0x94
100014a6:	f043 0370 	orr.w	r3, r3, #112	; 0x70
100014aa:	f8c4 3094 	str.w	r3, [r4, #148]	; 0x94
100014ae:	e747      	b.n	10001340 <RCCEx_PLL2_Config+0x8>
100014b0:	f7ff f812 	bl	100004d8 <HAL_GetTick>
100014b4:	1b80      	subs	r0, r0, r6
100014b6:	2864      	cmp	r0, #100	; 0x64
100014b8:	f67f af6e 	bls.w	10001398 <RCCEx_PLL2_Config+0x60>
100014bc:	2003      	movs	r0, #3
100014be:	e74c      	b.n	1000135a <RCCEx_PLL2_Config+0x22>
100014c0:	6a93      	ldr	r3, [r2, #40]	; 0x28
100014c2:	f023 0303 	bic.w	r3, r3, #3
100014c6:	4303      	orrs	r3, r0
100014c8:	6293      	str	r3, [r2, #40]	; 0x28
100014ca:	e784      	b.n	100013d6 <RCCEx_PLL2_Config+0x9e>
100014cc:	f8d2 3094 	ldr.w	r3, [r2, #148]	; 0x94
100014d0:	f023 0304 	bic.w	r3, r3, #4
100014d4:	e7d4      	b.n	10001480 <RCCEx_PLL2_Config+0x148>
100014d6:	f7fe ffff 	bl	100004d8 <HAL_GetTick>
100014da:	1b40      	subs	r0, r0, r5
100014dc:	2864      	cmp	r0, #100	; 0x64
100014de:	d9dc      	bls.n	1000149a <RCCEx_PLL2_Config+0x162>
100014e0:	e7ec      	b.n	100014bc <RCCEx_PLL2_Config+0x184>
100014e2:	f8d5 3094 	ldr.w	r3, [r5, #148]	; 0x94
100014e6:	f023 0370 	bic.w	r3, r3, #112	; 0x70
100014ea:	f8c5 3094 	str.w	r3, [r5, #148]	; 0x94
100014ee:	f8d5 3094 	ldr.w	r3, [r5, #148]	; 0x94
100014f2:	f023 0301 	bic.w	r3, r3, #1
100014f6:	f8c5 3094 	str.w	r3, [r5, #148]	; 0x94
100014fa:	f7fe ffed 	bl	100004d8 <HAL_GetTick>
100014fe:	4604      	mov	r4, r0
10001500:	f8d5 3094 	ldr.w	r3, [r5, #148]	; 0x94
10001504:	079b      	lsls	r3, r3, #30
10001506:	f57f af1b 	bpl.w	10001340 <RCCEx_PLL2_Config+0x8>
1000150a:	f7fe ffe5 	bl	100004d8 <HAL_GetTick>
1000150e:	1b00      	subs	r0, r0, r4
10001510:	2864      	cmp	r0, #100	; 0x64
10001512:	d9f5      	bls.n	10001500 <RCCEx_PLL2_Config+0x1c8>
10001514:	e7d2      	b.n	100014bc <RCCEx_PLL2_Config+0x184>
10001516:	bf00      	nop
10001518:	ffc0fe00 	.word	0xffc0fe00
1000151c:	ffff0007 	.word	0xffff0007

10001520 <RCCEx_PLL3_Config>:
10001520:	6802      	ldr	r2, [r0, #0]
10001522:	b570      	push	{r4, r5, r6, lr}
10001524:	4604      	mov	r4, r0
10001526:	b90a      	cbnz	r2, 1000152c <RCCEx_PLL3_Config+0xc>
10001528:	2000      	movs	r0, #0
1000152a:	e0ab      	b.n	10001684 <RCCEx_PLL3_Config+0x164>
1000152c:	f04f 41a0 	mov.w	r1, #1342177280	; 0x50000000
10001530:	6c8b      	ldr	r3, [r1, #72]	; 0x48
10001532:	f003 0303 	and.w	r3, r3, #3
10001536:	2b03      	cmp	r3, #3
10001538:	d103      	bne.n	10001542 <RCCEx_PLL3_Config+0x22>
1000153a:	6c8b      	ldr	r3, [r1, #72]	; 0x48
1000153c:	2b00      	cmp	r3, #0
1000153e:	f2c0 80c2 	blt.w	100016c6 <RCCEx_PLL3_Config+0x1a6>
10001542:	f04f 45a0 	mov.w	r5, #1342177280	; 0x50000000
10001546:	2a02      	cmp	r2, #2
10001548:	f8d5 3880 	ldr.w	r3, [r5, #2176]	; 0x880
1000154c:	f023 0370 	bic.w	r3, r3, #112	; 0x70
10001550:	f8c5 3880 	str.w	r3, [r5, #2176]	; 0x880
10001554:	f8d5 3880 	ldr.w	r3, [r5, #2176]	; 0x880
10001558:	f023 0301 	bic.w	r3, r3, #1
1000155c:	f8c5 3880 	str.w	r3, [r5, #2176]	; 0x880
10001560:	f040 80a3 	bne.w	100016aa <RCCEx_PLL3_Config+0x18a>
10001564:	f7fe ffb8 	bl	100004d8 <HAL_GetTick>
10001568:	4606      	mov	r6, r0
1000156a:	f8d5 3880 	ldr.w	r3, [r5, #2176]	; 0x880
1000156e:	0799      	lsls	r1, r3, #30
10001570:	f100 8081 	bmi.w	10001676 <RCCEx_PLL3_Config+0x156>
10001574:	f8d5 3820 	ldr.w	r3, [r5, #2080]	; 0x820
10001578:	6862      	ldr	r2, [r4, #4]
1000157a:	f023 0303 	bic.w	r3, r3, #3
1000157e:	4313      	orrs	r3, r2
10001580:	f8c5 3820 	str.w	r3, [r5, #2080]	; 0x820
10001584:	f04f 45a0 	mov.w	r5, #1342177280	; 0x50000000
10001588:	f8d5 3820 	ldr.w	r3, [r5, #2080]	; 0x820
1000158c:	2b00      	cmp	r3, #0
1000158e:	da7a      	bge.n	10001686 <RCCEx_PLL3_Config+0x166>
10001590:	f8d5 3884 	ldr.w	r3, [r5, #2180]	; 0x884
10001594:	69e2      	ldr	r2, [r4, #28]
10001596:	f023 7340 	bic.w	r3, r3, #50331648	; 0x3000000
1000159a:	4313      	orrs	r3, r2
1000159c:	f8c5 3884 	str.w	r3, [r5, #2180]	; 0x884
100015a0:	f8d5 1884 	ldr.w	r1, [r5, #2180]	; 0x884
100015a4:	68e3      	ldr	r3, [r4, #12]
100015a6:	4a49      	ldr	r2, [pc, #292]	; (100016cc <RCCEx_PLL3_Config+0x1ac>)
100015a8:	3b01      	subs	r3, #1
100015aa:	400a      	ands	r2, r1
100015ac:	4313      	orrs	r3, r2
100015ae:	68a2      	ldr	r2, [r4, #8]
100015b0:	3a01      	subs	r2, #1
100015b2:	ea43 4302 	orr.w	r3, r3, r2, lsl #16
100015b6:	f8c5 3884 	str.w	r3, [r5, #2180]	; 0x884
100015ba:	f8d5 2888 	ldr.w	r2, [r5, #2184]	; 0x888
100015be:	6923      	ldr	r3, [r4, #16]
100015c0:	f022 127f 	bic.w	r2, r2, #8323199	; 0x7f007f
100015c4:	f422 42fe 	bic.w	r2, r2, #32512	; 0x7f00
100015c8:	3b01      	subs	r3, #1
100015ca:	4313      	orrs	r3, r2
100015cc:	6962      	ldr	r2, [r4, #20]
100015ce:	3a01      	subs	r2, #1
100015d0:	ea43 2302 	orr.w	r3, r3, r2, lsl #8
100015d4:	69a2      	ldr	r2, [r4, #24]
100015d6:	3a01      	subs	r2, #1
100015d8:	ea43 4302 	orr.w	r3, r3, r2, lsl #16
100015dc:	f8c5 3888 	str.w	r3, [r5, #2184]	; 0x888
100015e0:	f8d5 388c 	ldr.w	r3, [r5, #2188]	; 0x88c
100015e4:	4a3a      	ldr	r2, [pc, #232]	; (100016d0 <RCCEx_PLL3_Config+0x1b0>)
100015e6:	f423 3380 	bic.w	r3, r3, #65536	; 0x10000
100015ea:	f8c5 388c 	str.w	r3, [r5, #2188]	; 0x88c
100015ee:	6a61      	ldr	r1, [r4, #36]	; 0x24
100015f0:	f031 0302 	bics.w	r3, r1, #2
100015f4:	f8d5 388c 	ldr.w	r3, [r5, #2188]	; 0x88c
100015f8:	bf1b      	ittet	ne
100015fa:	6a20      	ldrne	r0, [r4, #32]
100015fc:	4013      	andne	r3, r2
100015fe:	4013      	andeq	r3, r2
10001600:	ea43 03c0 	orrne.w	r3, r3, r0, lsl #3
10001604:	f04f 42a0 	mov.w	r2, #1342177280	; 0x50000000
10001608:	f8c5 388c 	str.w	r3, [r5, #2188]	; 0x88c
1000160c:	f8d2 388c 	ldr.w	r3, [r2, #2188]	; 0x88c
10001610:	2902      	cmp	r1, #2
10001612:	f443 3380 	orr.w	r3, r3, #65536	; 0x10000
10001616:	f8c2 388c 	str.w	r3, [r2, #2188]	; 0x88c
1000161a:	d13b      	bne.n	10001694 <RCCEx_PLL3_Config+0x174>
1000161c:	f8d2 1890 	ldr.w	r1, [r2, #2192]	; 0x890
10001620:	6aa3      	ldr	r3, [r4, #40]	; 0x28
10001622:	6b20      	ldr	r0, [r4, #48]	; 0x30
10001624:	f001 4100 	and.w	r1, r1, #2147483648	; 0x80000000
10001628:	4303      	orrs	r3, r0
1000162a:	430b      	orrs	r3, r1
1000162c:	6ae1      	ldr	r1, [r4, #44]	; 0x2c
1000162e:	430b      	orrs	r3, r1
10001630:	6b61      	ldr	r1, [r4, #52]	; 0x34
10001632:	430b      	orrs	r3, r1
10001634:	6ba1      	ldr	r1, [r4, #56]	; 0x38
10001636:	ea43 4301 	orr.w	r3, r3, r1, lsl #16
1000163a:	f8c2 3890 	str.w	r3, [r2, #2192]	; 0x890
1000163e:	f8d2 3880 	ldr.w	r3, [r2, #2176]	; 0x880
10001642:	f043 0304 	orr.w	r3, r3, #4
10001646:	f04f 44a0 	mov.w	r4, #1342177280	; 0x50000000
1000164a:	f8c2 3880 	str.w	r3, [r2, #2176]	; 0x880
1000164e:	f8d4 3880 	ldr.w	r3, [r4, #2176]	; 0x880
10001652:	f043 0301 	orr.w	r3, r3, #1
10001656:	f8c4 3880 	str.w	r3, [r4, #2176]	; 0x880
1000165a:	f7fe ff3d 	bl	100004d8 <HAL_GetTick>
1000165e:	4605      	mov	r5, r0
10001660:	f8d4 3880 	ldr.w	r3, [r4, #2176]	; 0x880
10001664:	079a      	lsls	r2, r3, #30
10001666:	d51a      	bpl.n	1000169e <RCCEx_PLL3_Config+0x17e>
10001668:	f8d4 3880 	ldr.w	r3, [r4, #2176]	; 0x880
1000166c:	f043 0370 	orr.w	r3, r3, #112	; 0x70
10001670:	f8c4 3880 	str.w	r3, [r4, #2176]	; 0x880
10001674:	e758      	b.n	10001528 <RCCEx_PLL3_Config+0x8>
10001676:	f7fe ff2f 	bl	100004d8 <HAL_GetTick>
1000167a:	1b80      	subs	r0, r0, r6
1000167c:	2864      	cmp	r0, #100	; 0x64
1000167e:	f67f af74 	bls.w	1000156a <RCCEx_PLL3_Config+0x4a>
10001682:	2003      	movs	r0, #3
10001684:	bd70      	pop	{r4, r5, r6, pc}
10001686:	f7fe ff27 	bl	100004d8 <HAL_GetTick>
1000168a:	1b80      	subs	r0, r0, r6
1000168c:	2864      	cmp	r0, #100	; 0x64
1000168e:	f67f af7b 	bls.w	10001588 <RCCEx_PLL3_Config+0x68>
10001692:	e7f6      	b.n	10001682 <RCCEx_PLL3_Config+0x162>
10001694:	f8d2 3880 	ldr.w	r3, [r2, #2176]	; 0x880
10001698:	f023 0304 	bic.w	r3, r3, #4
1000169c:	e7d3      	b.n	10001646 <RCCEx_PLL3_Config+0x126>
1000169e:	f7fe ff1b 	bl	100004d8 <HAL_GetTick>
100016a2:	1b40      	subs	r0, r0, r5
100016a4:	2864      	cmp	r0, #100	; 0x64
100016a6:	d9db      	bls.n	10001660 <RCCEx_PLL3_Config+0x140>
100016a8:	e7eb      	b.n	10001682 <RCCEx_PLL3_Config+0x162>
100016aa:	f7fe ff15 	bl	100004d8 <HAL_GetTick>
100016ae:	4604      	mov	r4, r0
100016b0:	f8d5 3880 	ldr.w	r3, [r5, #2176]	; 0x880
100016b4:	079b      	lsls	r3, r3, #30
100016b6:	f57f af37 	bpl.w	10001528 <RCCEx_PLL3_Config+0x8>
100016ba:	f7fe ff0d 	bl	100004d8 <HAL_GetTick>
100016be:	1b00      	subs	r0, r0, r4
100016c0:	2864      	cmp	r0, #100	; 0x64
100016c2:	d9f5      	bls.n	100016b0 <RCCEx_PLL3_Config+0x190>
100016c4:	e7dd      	b.n	10001682 <RCCEx_PLL3_Config+0x162>
100016c6:	2001      	movs	r0, #1
100016c8:	e7dc      	b.n	10001684 <RCCEx_PLL3_Config+0x164>
100016ca:	bf00      	nop
100016cc:	ffc0fe00 	.word	0xffc0fe00
100016d0:	ffff0007 	.word	0xffff0007

100016d4 <RCCEx_PLL4_Config>:
100016d4:	6803      	ldr	r3, [r0, #0]
100016d6:	b570      	push	{r4, r5, r6, lr}
100016d8:	4604      	mov	r4, r0
100016da:	b90b      	cbnz	r3, 100016e0 <RCCEx_PLL4_Config+0xc>
100016dc:	2000      	movs	r0, #0
100016de:	e0a0      	b.n	10001822 <RCCEx_PLL4_Config+0x14e>
100016e0:	f04f 45a0 	mov.w	r5, #1342177280	; 0x50000000
100016e4:	2b02      	cmp	r3, #2
100016e6:	f8d5 3894 	ldr.w	r3, [r5, #2196]	; 0x894
100016ea:	f023 0370 	bic.w	r3, r3, #112	; 0x70
100016ee:	f8c5 3894 	str.w	r3, [r5, #2196]	; 0x894
100016f2:	f8d5 3894 	ldr.w	r3, [r5, #2196]	; 0x894
100016f6:	f023 0301 	bic.w	r3, r3, #1
100016fa:	f8c5 3894 	str.w	r3, [r5, #2196]	; 0x894
100016fe:	f040 80a3 	bne.w	10001848 <RCCEx_PLL4_Config+0x174>
10001702:	f7fe fee9 	bl	100004d8 <HAL_GetTick>
10001706:	4606      	mov	r6, r0
10001708:	f8d5 3894 	ldr.w	r3, [r5, #2196]	; 0x894
1000170c:	0799      	lsls	r1, r3, #30
1000170e:	f100 8081 	bmi.w	10001814 <RCCEx_PLL4_Config+0x140>
10001712:	f8d5 3824 	ldr.w	r3, [r5, #2084]	; 0x824
10001716:	6862      	ldr	r2, [r4, #4]
10001718:	f023 0303 	bic.w	r3, r3, #3
1000171c:	4313      	orrs	r3, r2
1000171e:	f8c5 3824 	str.w	r3, [r5, #2084]	; 0x824
10001722:	f04f 45a0 	mov.w	r5, #1342177280	; 0x50000000
10001726:	f8d5 3824 	ldr.w	r3, [r5, #2084]	; 0x824
1000172a:	2b00      	cmp	r3, #0
1000172c:	da7a      	bge.n	10001824 <RCCEx_PLL4_Config+0x150>
1000172e:	f8d5 3898 	ldr.w	r3, [r5, #2200]	; 0x898
10001732:	69e2      	ldr	r2, [r4, #28]
10001734:	f023 7340 	bic.w	r3, r3, #50331648	; 0x3000000
10001738:	4313      	orrs	r3, r2
1000173a:	f8c5 3898 	str.w	r3, [r5, #2200]	; 0x898
1000173e:	f8d5 1898 	ldr.w	r1, [r5, #2200]	; 0x898
10001742:	68e3      	ldr	r3, [r4, #12]
10001744:	4a47      	ldr	r2, [pc, #284]	; (10001864 <RCCEx_PLL4_Config+0x190>)
10001746:	3b01      	subs	r3, #1
10001748:	400a      	ands	r2, r1
1000174a:	4313      	orrs	r3, r2
1000174c:	68a2      	ldr	r2, [r4, #8]
1000174e:	3a01      	subs	r2, #1
10001750:	ea43 4302 	orr.w	r3, r3, r2, lsl #16
10001754:	f8c5 3898 	str.w	r3, [r5, #2200]	; 0x898
10001758:	f8d5 289c 	ldr.w	r2, [r5, #2204]	; 0x89c
1000175c:	6923      	ldr	r3, [r4, #16]
1000175e:	f022 127f 	bic.w	r2, r2, #8323199	; 0x7f007f
10001762:	f422 42fe 	bic.w	r2, r2, #32512	; 0x7f00
10001766:	3b01      	subs	r3, #1
10001768:	4313      	orrs	r3, r2
1000176a:	6962      	ldr	r2, [r4, #20]
1000176c:	3a01      	subs	r2, #1
1000176e:	ea43 2302 	orr.w	r3, r3, r2, lsl #8
10001772:	69a2      	ldr	r2, [r4, #24]
10001774:	3a01      	subs	r2, #1
10001776:	ea43 4302 	orr.w	r3, r3, r2, lsl #16
1000177a:	f8c5 389c 	str.w	r3, [r5, #2204]	; 0x89c
1000177e:	f8d5 38a0 	ldr.w	r3, [r5, #2208]	; 0x8a0
10001782:	4a39      	ldr	r2, [pc, #228]	; (10001868 <RCCEx_PLL4_Config+0x194>)
10001784:	f423 3380 	bic.w	r3, r3, #65536	; 0x10000
10001788:	f8c5 38a0 	str.w	r3, [r5, #2208]	; 0x8a0
1000178c:	6a61      	ldr	r1, [r4, #36]	; 0x24
1000178e:	f031 0302 	bics.w	r3, r1, #2
10001792:	f8d5 38a0 	ldr.w	r3, [r5, #2208]	; 0x8a0
10001796:	bf1b      	ittet	ne
10001798:	6a20      	ldrne	r0, [r4, #32]
1000179a:	4013      	andne	r3, r2
1000179c:	4013      	andeq	r3, r2
1000179e:	ea43 03c0 	orrne.w	r3, r3, r0, lsl #3
100017a2:	f04f 42a0 	mov.w	r2, #1342177280	; 0x50000000
100017a6:	f8c5 38a0 	str.w	r3, [r5, #2208]	; 0x8a0
100017aa:	f8d2 38a0 	ldr.w	r3, [r2, #2208]	; 0x8a0
100017ae:	2902      	cmp	r1, #2
100017b0:	f443 3380 	orr.w	r3, r3, #65536	; 0x10000
100017b4:	f8c2 38a0 	str.w	r3, [r2, #2208]	; 0x8a0
100017b8:	d13b      	bne.n	10001832 <RCCEx_PLL4_Config+0x15e>
100017ba:	f8d2 18a4 	ldr.w	r1, [r2, #2212]	; 0x8a4
100017be:	6aa3      	ldr	r3, [r4, #40]	; 0x28
100017c0:	6b20      	ldr	r0, [r4, #48]	; 0x30
100017c2:	f001 4100 	and.w	r1, r1, #2147483648	; 0x80000000
100017c6:	4303      	orrs	r3, r0
100017c8:	430b      	orrs	r3, r1
100017ca:	6ae1      	ldr	r1, [r4, #44]	; 0x2c
100017cc:	430b      	orrs	r3, r1
100017ce:	6b61      	ldr	r1, [r4, #52]	; 0x34
100017d0:	430b      	orrs	r3, r1
100017d2:	6ba1      	ldr	r1, [r4, #56]	; 0x38
100017d4:	ea43 4301 	orr.w	r3, r3, r1, lsl #16
100017d8:	f8c2 38a4 	str.w	r3, [r2, #2212]	; 0x8a4
100017dc:	f8d2 3894 	ldr.w	r3, [r2, #2196]	; 0x894
100017e0:	f043 0304 	orr.w	r3, r3, #4
100017e4:	f04f 44a0 	mov.w	r4, #1342177280	; 0x50000000
100017e8:	f8c2 3894 	str.w	r3, [r2, #2196]	; 0x894
100017ec:	f8d4 3894 	ldr.w	r3, [r4, #2196]	; 0x894
100017f0:	f043 0301 	orr.w	r3, r3, #1
100017f4:	f8c4 3894 	str.w	r3, [r4, #2196]	; 0x894
100017f8:	f7fe fe6e 	bl	100004d8 <HAL_GetTick>
100017fc:	4605      	mov	r5, r0
100017fe:	f8d4 3894 	ldr.w	r3, [r4, #2196]	; 0x894
10001802:	079a      	lsls	r2, r3, #30
10001804:	d51a      	bpl.n	1000183c <RCCEx_PLL4_Config+0x168>
10001806:	f8d4 3894 	ldr.w	r3, [r4, #2196]	; 0x894
1000180a:	f043 0370 	orr.w	r3, r3, #112	; 0x70
1000180e:	f8c4 3894 	str.w	r3, [r4, #2196]	; 0x894
10001812:	e763      	b.n	100016dc <RCCEx_PLL4_Config+0x8>
10001814:	f7fe fe60 	bl	100004d8 <HAL_GetTick>
10001818:	1b80      	subs	r0, r0, r6
1000181a:	2864      	cmp	r0, #100	; 0x64
1000181c:	f67f af74 	bls.w	10001708 <RCCEx_PLL4_Config+0x34>
10001820:	2003      	movs	r0, #3
10001822:	bd70      	pop	{r4, r5, r6, pc}
10001824:	f7fe fe58 	bl	100004d8 <HAL_GetTick>
10001828:	1b80      	subs	r0, r0, r6
1000182a:	2864      	cmp	r0, #100	; 0x64
1000182c:	f67f af7b 	bls.w	10001726 <RCCEx_PLL4_Config+0x52>
10001830:	e7f6      	b.n	10001820 <RCCEx_PLL4_Config+0x14c>
10001832:	f8d2 3894 	ldr.w	r3, [r2, #2196]	; 0x894
10001836:	f023 0304 	bic.w	r3, r3, #4
1000183a:	e7d3      	b.n	100017e4 <RCCEx_PLL4_Config+0x110>
1000183c:	f7fe fe4c 	bl	100004d8 <HAL_GetTick>
10001840:	1b40      	subs	r0, r0, r5
10001842:	2864      	cmp	r0, #100	; 0x64
10001844:	d9db      	bls.n	100017fe <RCCEx_PLL4_Config+0x12a>
10001846:	e7eb      	b.n	10001820 <RCCEx_PLL4_Config+0x14c>
10001848:	f7fe fe46 	bl	100004d8 <HAL_GetTick>
1000184c:	4604      	mov	r4, r0
1000184e:	f8d5 3894 	ldr.w	r3, [r5, #2196]	; 0x894
10001852:	079b      	lsls	r3, r3, #30
10001854:	f57f af42 	bpl.w	100016dc <RCCEx_PLL4_Config+0x8>
10001858:	f7fe fe3e 	bl	100004d8 <HAL_GetTick>
1000185c:	1b00      	subs	r0, r0, r4
1000185e:	2864      	cmp	r0, #100	; 0x64
10001860:	d9f5      	bls.n	1000184e <RCCEx_PLL4_Config+0x17a>
10001862:	e7dd      	b.n	10001820 <RCCEx_PLL4_Config+0x14c>
10001864:	ffc0fe00 	.word	0xffc0fe00
10001868:	ffff0007 	.word	0xffff0007

1000186c <HAL_RCCEx_PeriphCLKConfig>:
1000186c:	b5f0      	push	{r4, r5, r6, r7, lr}
1000186e:	6802      	ldr	r2, [r0, #0]
10001870:	0214      	lsls	r4, r2, #8
10001872:	b0c7      	sub	sp, #284	; 0x11c
10001874:	4605      	mov	r5, r0
10001876:	d50a      	bpl.n	1000188e <HAL_RCCEx_PeriphCLKConfig+0x22>
10001878:	f04f 41a0 	mov.w	r1, #1342177280	; 0x50000000
1000187c:	f8d0 0114 	ldr.w	r0, [r0, #276]	; 0x114
10001880:	f8d1 30d0 	ldr.w	r3, [r1, #208]	; 0xd0
10001884:	f023 0303 	bic.w	r3, r3, #3
10001888:	4303      	orrs	r3, r0
1000188a:	f8c1 30d0 	str.w	r3, [r1, #208]	; 0xd0
1000188e:	06d0      	lsls	r0, r2, #27
10001890:	d51e      	bpl.n	100018d0 <HAL_RCCEx_PeriphCLKConfig+0x64>
10001892:	f8d5 30bc 	ldr.w	r3, [r5, #188]	; 0xbc
10001896:	2b01      	cmp	r3, #1
10001898:	d10f      	bne.n	100018ba <HAL_RCCEx_PeriphCLKConfig+0x4e>
1000189a:	f105 0080 	add.w	r0, r5, #128	; 0x80
1000189e:	f7ff ff19 	bl	100016d4 <RCCEx_PLL4_Config>
100018a2:	4604      	mov	r4, r0
100018a4:	2800      	cmp	r0, #0
100018a6:	f040 86d9 	bne.w	1000265c <HAL_RCCEx_PeriphCLKConfig+0xdf0>
100018aa:	f04f 42a0 	mov.w	r2, #1342177280	; 0x50000000
100018ae:	f8d2 3894 	ldr.w	r3, [r2, #2196]	; 0x894
100018b2:	f043 0340 	orr.w	r3, r3, #64	; 0x40
100018b6:	f8c2 3894 	str.w	r3, [r2, #2196]	; 0x894
100018ba:	f04f 42a0 	mov.w	r2, #1342177280	; 0x50000000
100018be:	f8d5 10bc 	ldr.w	r1, [r5, #188]	; 0xbc
100018c2:	f8d2 38c0 	ldr.w	r3, [r2, #2240]	; 0x8c0
100018c6:	f023 0307 	bic.w	r3, r3, #7
100018ca:	430b      	orrs	r3, r1
100018cc:	f8c2 38c0 	str.w	r3, [r2, #2240]	; 0x8c0
100018d0:	682b      	ldr	r3, [r5, #0]
100018d2:	0699      	lsls	r1, r3, #26
100018d4:	d51e      	bpl.n	10001914 <HAL_RCCEx_PeriphCLKConfig+0xa8>
100018d6:	f8d5 30c0 	ldr.w	r3, [r5, #192]	; 0xc0
100018da:	2b01      	cmp	r3, #1
100018dc:	d10f      	bne.n	100018fe <HAL_RCCEx_PeriphCLKConfig+0x92>
100018de:	f105 0080 	add.w	r0, r5, #128	; 0x80
100018e2:	f7ff fef7 	bl	100016d4 <RCCEx_PLL4_Config>
100018e6:	4604      	mov	r4, r0
100018e8:	2800      	cmp	r0, #0
100018ea:	f040 86b7 	bne.w	1000265c <HAL_RCCEx_PeriphCLKConfig+0xdf0>
100018ee:	f04f 42a0 	mov.w	r2, #1342177280	; 0x50000000
100018f2:	f8d2 3894 	ldr.w	r3, [r2, #2196]	; 0x894
100018f6:	f043 0340 	orr.w	r3, r3, #64	; 0x40
100018fa:	f8c2 3894 	str.w	r3, [r2, #2196]	; 0x894
100018fe:	f04f 42a0 	mov.w	r2, #1342177280	; 0x50000000
10001902:	f8d5 10c0 	ldr.w	r1, [r5, #192]	; 0xc0
10001906:	f8d2 38c4 	ldr.w	r3, [r2, #2244]	; 0x8c4
1000190a:	f023 0307 	bic.w	r3, r3, #7
1000190e:	430b      	orrs	r3, r1
10001910:	f8c2 38c4 	str.w	r3, [r2, #2244]	; 0x8c4
10001914:	686b      	ldr	r3, [r5, #4]
10001916:	069a      	lsls	r2, r3, #26
10001918:	d51e      	bpl.n	10001958 <HAL_RCCEx_PeriphCLKConfig+0xec>
1000191a:	f8d5 30c4 	ldr.w	r3, [r5, #196]	; 0xc4
1000191e:	2b01      	cmp	r3, #1
10001920:	d10f      	bne.n	10001942 <HAL_RCCEx_PeriphCLKConfig+0xd6>
10001922:	f105 0044 	add.w	r0, r5, #68	; 0x44
10001926:	f7ff fdfb 	bl	10001520 <RCCEx_PLL3_Config>
1000192a:	4604      	mov	r4, r0
1000192c:	2800      	cmp	r0, #0
1000192e:	f040 8695 	bne.w	1000265c <HAL_RCCEx_PeriphCLKConfig+0xdf0>
10001932:	f04f 42a0 	mov.w	r2, #1342177280	; 0x50000000
10001936:	f8d2 3880 	ldr.w	r3, [r2, #2176]	; 0x880
1000193a:	f043 0320 	orr.w	r3, r3, #32
1000193e:	f8c2 3880 	str.w	r3, [r2, #2176]	; 0x880
10001942:	f04f 42a0 	mov.w	r2, #1342177280	; 0x50000000
10001946:	f8d5 10c4 	ldr.w	r1, [r5, #196]	; 0xc4
1000194a:	f8d2 30c0 	ldr.w	r3, [r2, #192]	; 0xc0
1000194e:	f023 0307 	bic.w	r3, r3, #7
10001952:	430b      	orrs	r3, r1
10001954:	f8c2 30c0 	str.w	r3, [r2, #192]	; 0xc0
10001958:	682b      	ldr	r3, [r5, #0]
1000195a:	061b      	lsls	r3, r3, #24
1000195c:	d523      	bpl.n	100019a6 <HAL_RCCEx_PeriphCLKConfig+0x13a>
1000195e:	f8d5 30c8 	ldr.w	r3, [r5, #200]	; 0xc8
10001962:	2b01      	cmp	r3, #1
10001964:	f000 8422 	beq.w	100021ac <HAL_RCCEx_PeriphCLKConfig+0x940>
10001968:	2b04      	cmp	r3, #4
1000196a:	f000 8431 	beq.w	100021d0 <HAL_RCCEx_PeriphCLKConfig+0x964>
1000196e:	b97b      	cbnz	r3, 10001990 <HAL_RCCEx_PeriphCLKConfig+0x124>
10001970:	f105 0080 	add.w	r0, r5, #128	; 0x80
10001974:	f7ff feae 	bl	100016d4 <RCCEx_PLL4_Config>
10001978:	4604      	mov	r4, r0
1000197a:	2800      	cmp	r0, #0
1000197c:	f040 866e 	bne.w	1000265c <HAL_RCCEx_PeriphCLKConfig+0xdf0>
10001980:	f04f 42a0 	mov.w	r2, #1342177280	; 0x50000000
10001984:	f8d2 3894 	ldr.w	r3, [r2, #2196]	; 0x894
10001988:	f043 0320 	orr.w	r3, r3, #32
1000198c:	f8c2 3894 	str.w	r3, [r2, #2196]	; 0x894
10001990:	f04f 42a0 	mov.w	r2, #1342177280	; 0x50000000
10001994:	f8d5 10c8 	ldr.w	r1, [r5, #200]	; 0xc8
10001998:	f8d2 38c8 	ldr.w	r3, [r2, #2248]	; 0x8c8
1000199c:	f023 0307 	bic.w	r3, r3, #7
100019a0:	430b      	orrs	r3, r1
100019a2:	f8c2 38c8 	str.w	r3, [r2, #2248]	; 0x8c8
100019a6:	682b      	ldr	r3, [r5, #0]
100019a8:	05df      	lsls	r7, r3, #23
100019aa:	d523      	bpl.n	100019f4 <HAL_RCCEx_PeriphCLKConfig+0x188>
100019ac:	f8d5 30cc 	ldr.w	r3, [r5, #204]	; 0xcc
100019b0:	2b01      	cmp	r3, #1
100019b2:	f000 841c 	beq.w	100021ee <HAL_RCCEx_PeriphCLKConfig+0x982>
100019b6:	2b05      	cmp	r3, #5
100019b8:	f000 842b 	beq.w	10002212 <HAL_RCCEx_PeriphCLKConfig+0x9a6>
100019bc:	b97b      	cbnz	r3, 100019de <HAL_RCCEx_PeriphCLKConfig+0x172>
100019be:	f105 0080 	add.w	r0, r5, #128	; 0x80
100019c2:	f7ff fe87 	bl	100016d4 <RCCEx_PLL4_Config>
100019c6:	4604      	mov	r4, r0
100019c8:	2800      	cmp	r0, #0
100019ca:	f040 8647 	bne.w	1000265c <HAL_RCCEx_PeriphCLKConfig+0xdf0>
100019ce:	f04f 42a0 	mov.w	r2, #1342177280	; 0x50000000
100019d2:	f8d2 3894 	ldr.w	r3, [r2, #2196]	; 0x894
100019d6:	f043 0320 	orr.w	r3, r3, #32
100019da:	f8c2 3894 	str.w	r3, [r2, #2196]	; 0x894
100019de:	f04f 42a0 	mov.w	r2, #1342177280	; 0x50000000
100019e2:	f8d5 10cc 	ldr.w	r1, [r5, #204]	; 0xcc
100019e6:	f8d2 38cc 	ldr.w	r3, [r2, #2252]	; 0x8cc
100019ea:	f023 0307 	bic.w	r3, r3, #7
100019ee:	430b      	orrs	r3, r1
100019f0:	f8c2 38cc 	str.w	r3, [r2, #2252]	; 0x8cc
100019f4:	682b      	ldr	r3, [r5, #0]
100019f6:	035e      	lsls	r6, r3, #13
100019f8:	d523      	bpl.n	10001a42 <HAL_RCCEx_PeriphCLKConfig+0x1d6>
100019fa:	f8d5 30d0 	ldr.w	r3, [r5, #208]	; 0xd0
100019fe:	2b01      	cmp	r3, #1
10001a00:	f000 8416 	beq.w	10002230 <HAL_RCCEx_PeriphCLKConfig+0x9c4>
10001a04:	2b04      	cmp	r3, #4
10001a06:	f000 8425 	beq.w	10002254 <HAL_RCCEx_PeriphCLKConfig+0x9e8>
10001a0a:	b97b      	cbnz	r3, 10001a2c <HAL_RCCEx_PeriphCLKConfig+0x1c0>
10001a0c:	f105 0080 	add.w	r0, r5, #128	; 0x80
10001a10:	f7ff fe60 	bl	100016d4 <RCCEx_PLL4_Config>
10001a14:	4604      	mov	r4, r0
10001a16:	2800      	cmp	r0, #0
10001a18:	f040 8620 	bne.w	1000265c <HAL_RCCEx_PeriphCLKConfig+0xdf0>
10001a1c:	f04f 42a0 	mov.w	r2, #1342177280	; 0x50000000
10001a20:	f8d2 3894 	ldr.w	r3, [r2, #2196]	; 0x894
10001a24:	f043 0320 	orr.w	r3, r3, #32
10001a28:	f8c2 3894 	str.w	r3, [r2, #2196]	; 0x894
10001a2c:	f04f 42a0 	mov.w	r2, #1342177280	; 0x50000000
10001a30:	f8d5 10d0 	ldr.w	r1, [r5, #208]	; 0xd0
10001a34:	f8d2 38d0 	ldr.w	r3, [r2, #2256]	; 0x8d0
10001a38:	f023 0307 	bic.w	r3, r3, #7
10001a3c:	430b      	orrs	r3, r1
10001a3e:	f8c2 38d0 	str.w	r3, [r2, #2256]	; 0x8d0
10001a42:	682b      	ldr	r3, [r5, #0]
10001a44:	005c      	lsls	r4, r3, #1
10001a46:	d523      	bpl.n	10001a90 <HAL_RCCEx_PeriphCLKConfig+0x224>
10001a48:	f8d5 30d4 	ldr.w	r3, [r5, #212]	; 0xd4
10001a4c:	2b01      	cmp	r3, #1
10001a4e:	f000 8410 	beq.w	10002272 <HAL_RCCEx_PeriphCLKConfig+0xa06>
10001a52:	2b04      	cmp	r3, #4
10001a54:	f000 841f 	beq.w	10002296 <HAL_RCCEx_PeriphCLKConfig+0xa2a>
10001a58:	b97b      	cbnz	r3, 10001a7a <HAL_RCCEx_PeriphCLKConfig+0x20e>
10001a5a:	f105 0080 	add.w	r0, r5, #128	; 0x80
10001a5e:	f7ff fe39 	bl	100016d4 <RCCEx_PLL4_Config>
10001a62:	4604      	mov	r4, r0
10001a64:	2800      	cmp	r0, #0
10001a66:	f040 85f9 	bne.w	1000265c <HAL_RCCEx_PeriphCLKConfig+0xdf0>
10001a6a:	f04f 42a0 	mov.w	r2, #1342177280	; 0x50000000
10001a6e:	f8d2 3894 	ldr.w	r3, [r2, #2196]	; 0x894
10001a72:	f043 0320 	orr.w	r3, r3, #32
10001a76:	f8c2 3894 	str.w	r3, [r2, #2196]	; 0x894
10001a7a:	f04f 42a0 	mov.w	r2, #1342177280	; 0x50000000
10001a7e:	f8d5 10d4 	ldr.w	r1, [r5, #212]	; 0xd4
10001a82:	f8d2 38d4 	ldr.w	r3, [r2, #2260]	; 0x8d4
10001a86:	f023 0307 	bic.w	r3, r3, #7
10001a8a:	430b      	orrs	r3, r1
10001a8c:	f8c2 38d4 	str.w	r3, [r2, #2260]	; 0x8d4
10001a90:	682b      	ldr	r3, [r5, #0]
10001a92:	0158      	lsls	r0, r3, #5
10001a94:	d523      	bpl.n	10001ade <HAL_RCCEx_PeriphCLKConfig+0x272>
10001a96:	f8d5 30d8 	ldr.w	r3, [r5, #216]	; 0xd8
10001a9a:	2b01      	cmp	r3, #1
10001a9c:	f000 840a 	beq.w	100022b4 <HAL_RCCEx_PeriphCLKConfig+0xa48>
10001aa0:	2b04      	cmp	r3, #4
10001aa2:	f000 8419 	beq.w	100022d8 <HAL_RCCEx_PeriphCLKConfig+0xa6c>
10001aa6:	b97b      	cbnz	r3, 10001ac8 <HAL_RCCEx_PeriphCLKConfig+0x25c>
10001aa8:	f105 0080 	add.w	r0, r5, #128	; 0x80
10001aac:	f7ff fe12 	bl	100016d4 <RCCEx_PLL4_Config>
10001ab0:	4604      	mov	r4, r0
10001ab2:	2800      	cmp	r0, #0
10001ab4:	f040 85d2 	bne.w	1000265c <HAL_RCCEx_PeriphCLKConfig+0xdf0>
10001ab8:	f04f 42a0 	mov.w	r2, #1342177280	; 0x50000000
10001abc:	f8d2 3894 	ldr.w	r3, [r2, #2196]	; 0x894
10001ac0:	f043 0310 	orr.w	r3, r3, #16
10001ac4:	f8c2 3894 	str.w	r3, [r2, #2196]	; 0x894
10001ac8:	f04f 42a0 	mov.w	r2, #1342177280	; 0x50000000
10001acc:	f8d5 10d8 	ldr.w	r1, [r5, #216]	; 0xd8
10001ad0:	f8d2 38d8 	ldr.w	r3, [r2, #2264]	; 0x8d8
10001ad4:	f023 0307 	bic.w	r3, r3, #7
10001ad8:	430b      	orrs	r3, r1
10001ada:	f8c2 38d8 	str.w	r3, [r2, #2264]	; 0x8d8
10001ade:	682b      	ldr	r3, [r5, #0]
10001ae0:	0119      	lsls	r1, r3, #4
10001ae2:	d523      	bpl.n	10001b2c <HAL_RCCEx_PeriphCLKConfig+0x2c0>
10001ae4:	f8d5 30dc 	ldr.w	r3, [r5, #220]	; 0xdc
10001ae8:	2b01      	cmp	r3, #1
10001aea:	f000 8404 	beq.w	100022f6 <HAL_RCCEx_PeriphCLKConfig+0xa8a>
10001aee:	2b04      	cmp	r3, #4
10001af0:	f000 8413 	beq.w	1000231a <HAL_RCCEx_PeriphCLKConfig+0xaae>
10001af4:	b97b      	cbnz	r3, 10001b16 <HAL_RCCEx_PeriphCLKConfig+0x2aa>
10001af6:	f105 0080 	add.w	r0, r5, #128	; 0x80
10001afa:	f7ff fdeb 	bl	100016d4 <RCCEx_PLL4_Config>
10001afe:	4604      	mov	r4, r0
10001b00:	2800      	cmp	r0, #0
10001b02:	f040 85ab 	bne.w	1000265c <HAL_RCCEx_PeriphCLKConfig+0xdf0>
10001b06:	f04f 42a0 	mov.w	r2, #1342177280	; 0x50000000
10001b0a:	f8d2 3894 	ldr.w	r3, [r2, #2196]	; 0x894
10001b0e:	f043 0310 	orr.w	r3, r3, #16
10001b12:	f8c2 3894 	str.w	r3, [r2, #2196]	; 0x894
10001b16:	f04f 42a0 	mov.w	r2, #1342177280	; 0x50000000
10001b1a:	f8d5 10dc 	ldr.w	r1, [r5, #220]	; 0xdc
10001b1e:	f8d2 38dc 	ldr.w	r3, [r2, #2268]	; 0x8dc
10001b22:	f023 0307 	bic.w	r3, r3, #7
10001b26:	430b      	orrs	r3, r1
10001b28:	f8c2 38dc 	str.w	r3, [r2, #2268]	; 0x8dc
10001b2c:	682b      	ldr	r3, [r5, #0]
10001b2e:	00da      	lsls	r2, r3, #3
10001b30:	d51e      	bpl.n	10001b70 <HAL_RCCEx_PeriphCLKConfig+0x304>
10001b32:	f8d5 30e0 	ldr.w	r3, [r5, #224]	; 0xe0
10001b36:	2b01      	cmp	r3, #1
10001b38:	d10f      	bne.n	10001b5a <HAL_RCCEx_PeriphCLKConfig+0x2ee>
10001b3a:	f105 0080 	add.w	r0, r5, #128	; 0x80
10001b3e:	f7ff fdc9 	bl	100016d4 <RCCEx_PLL4_Config>
10001b42:	4604      	mov	r4, r0
10001b44:	2800      	cmp	r0, #0
10001b46:	f040 8589 	bne.w	1000265c <HAL_RCCEx_PeriphCLKConfig+0xdf0>
10001b4a:	f04f 42a0 	mov.w	r2, #1342177280	; 0x50000000
10001b4e:	f8d2 3894 	ldr.w	r3, [r2, #2196]	; 0x894
10001b52:	f043 0320 	orr.w	r3, r3, #32
10001b56:	f8c2 3894 	str.w	r3, [r2, #2196]	; 0x894
10001b5a:	f04f 42a0 	mov.w	r2, #1342177280	; 0x50000000
10001b5e:	f8d5 10e0 	ldr.w	r1, [r5, #224]	; 0xe0
10001b62:	f8d2 38e0 	ldr.w	r3, [r2, #2272]	; 0x8e0
10001b66:	f023 0307 	bic.w	r3, r3, #7
10001b6a:	430b      	orrs	r3, r1
10001b6c:	f8c2 38e0 	str.w	r3, [r2, #2272]	; 0x8e0
10001b70:	682b      	ldr	r3, [r5, #0]
10001b72:	009b      	lsls	r3, r3, #2
10001b74:	d512      	bpl.n	10001b9c <HAL_RCCEx_PeriphCLKConfig+0x330>
10001b76:	f8d5 30e4 	ldr.w	r3, [r5, #228]	; 0xe4
10001b7a:	2b01      	cmp	r3, #1
10001b7c:	f000 83dc 	beq.w	10002338 <HAL_RCCEx_PeriphCLKConfig+0xacc>
10001b80:	2b05      	cmp	r3, #5
10001b82:	f000 83ea 	beq.w	1000235a <HAL_RCCEx_PeriphCLKConfig+0xaee>
10001b86:	f04f 42a0 	mov.w	r2, #1342177280	; 0x50000000
10001b8a:	f8d5 10e4 	ldr.w	r1, [r5, #228]	; 0xe4
10001b8e:	f8d2 30c4 	ldr.w	r3, [r2, #196]	; 0xc4
10001b92:	f023 0307 	bic.w	r3, r3, #7
10001b96:	430b      	orrs	r3, r1
10001b98:	f8c2 30c4 	str.w	r3, [r2, #196]	; 0xc4
10001b9c:	682b      	ldr	r3, [r5, #0]
10001b9e:	045f      	lsls	r7, r3, #17
10001ba0:	d51e      	bpl.n	10001be0 <HAL_RCCEx_PeriphCLKConfig+0x374>
10001ba2:	f8d5 30f4 	ldr.w	r3, [r5, #244]	; 0xf4
10001ba6:	2b01      	cmp	r3, #1
10001ba8:	d10f      	bne.n	10001bca <HAL_RCCEx_PeriphCLKConfig+0x35e>
10001baa:	f105 0080 	add.w	r0, r5, #128	; 0x80
10001bae:	f7ff fd91 	bl	100016d4 <RCCEx_PLL4_Config>
10001bb2:	4604      	mov	r4, r0
10001bb4:	2800      	cmp	r0, #0
10001bb6:	f040 8551 	bne.w	1000265c <HAL_RCCEx_PeriphCLKConfig+0xdf0>
10001bba:	f04f 42a0 	mov.w	r2, #1342177280	; 0x50000000
10001bbe:	f8d2 3894 	ldr.w	r3, [r2, #2196]	; 0x894
10001bc2:	f043 0320 	orr.w	r3, r3, #32
10001bc6:	f8c2 3894 	str.w	r3, [r2, #2196]	; 0x894
10001bca:	f04f 42a0 	mov.w	r2, #1342177280	; 0x50000000
10001bce:	f8d5 10f4 	ldr.w	r1, [r5, #244]	; 0xf4
10001bd2:	f8d2 38e4 	ldr.w	r3, [r2, #2276]	; 0x8e4
10001bd6:	f023 0307 	bic.w	r3, r3, #7
10001bda:	430b      	orrs	r3, r1
10001bdc:	f8c2 38e4 	str.w	r3, [r2, #2276]	; 0x8e4
10001be0:	682b      	ldr	r3, [r5, #0]
10001be2:	079e      	lsls	r6, r3, #30
10001be4:	d51e      	bpl.n	10001c24 <HAL_RCCEx_PeriphCLKConfig+0x3b8>
10001be6:	f8d5 30ec 	ldr.w	r3, [r5, #236]	; 0xec
10001bea:	2b01      	cmp	r3, #1
10001bec:	d10f      	bne.n	10001c0e <HAL_RCCEx_PeriphCLKConfig+0x3a2>
10001bee:	f105 0080 	add.w	r0, r5, #128	; 0x80
10001bf2:	f7ff fd6f 	bl	100016d4 <RCCEx_PLL4_Config>
10001bf6:	4604      	mov	r4, r0
10001bf8:	2800      	cmp	r0, #0
10001bfa:	f040 852f 	bne.w	1000265c <HAL_RCCEx_PeriphCLKConfig+0xdf0>
10001bfe:	f04f 42a0 	mov.w	r2, #1342177280	; 0x50000000
10001c02:	f8d2 3894 	ldr.w	r3, [r2, #2196]	; 0x894
10001c06:	f043 0320 	orr.w	r3, r3, #32
10001c0a:	f8c2 3894 	str.w	r3, [r2, #2196]	; 0x894
10001c0e:	f04f 42a0 	mov.w	r2, #1342177280	; 0x50000000
10001c12:	f8d5 10ec 	ldr.w	r1, [r5, #236]	; 0xec
10001c16:	f8d2 38e8 	ldr.w	r3, [r2, #2280]	; 0x8e8
10001c1a:	f023 0307 	bic.w	r3, r3, #7
10001c1e:	430b      	orrs	r3, r1
10001c20:	f8c2 38e8 	str.w	r3, [r2, #2280]	; 0x8e8
10001c24:	682b      	ldr	r3, [r5, #0]
10001c26:	075c      	lsls	r4, r3, #29
10001c28:	d51e      	bpl.n	10001c68 <HAL_RCCEx_PeriphCLKConfig+0x3fc>
10001c2a:	f8d5 30f0 	ldr.w	r3, [r5, #240]	; 0xf0
10001c2e:	2b01      	cmp	r3, #1
10001c30:	d10f      	bne.n	10001c52 <HAL_RCCEx_PeriphCLKConfig+0x3e6>
10001c32:	f105 0080 	add.w	r0, r5, #128	; 0x80
10001c36:	f7ff fd4d 	bl	100016d4 <RCCEx_PLL4_Config>
10001c3a:	4604      	mov	r4, r0
10001c3c:	2800      	cmp	r0, #0
10001c3e:	f040 850d 	bne.w	1000265c <HAL_RCCEx_PeriphCLKConfig+0xdf0>
10001c42:	f04f 42a0 	mov.w	r2, #1342177280	; 0x50000000
10001c46:	f8d2 3894 	ldr.w	r3, [r2, #2196]	; 0x894
10001c4a:	f043 0320 	orr.w	r3, r3, #32
10001c4e:	f8c2 3894 	str.w	r3, [r2, #2196]	; 0x894
10001c52:	f04f 42a0 	mov.w	r2, #1342177280	; 0x50000000
10001c56:	f8d5 10f0 	ldr.w	r1, [r5, #240]	; 0xf0
10001c5a:	f8d2 38ec 	ldr.w	r3, [r2, #2284]	; 0x8ec
10001c5e:	f023 0307 	bic.w	r3, r3, #7
10001c62:	430b      	orrs	r3, r1
10001c64:	f8c2 38ec 	str.w	r3, [r2, #2284]	; 0x8ec
10001c68:	682b      	ldr	r3, [r5, #0]
10001c6a:	0418      	lsls	r0, r3, #16
10001c6c:	d51e      	bpl.n	10001cac <HAL_RCCEx_PeriphCLKConfig+0x440>
10001c6e:	f8d5 30f8 	ldr.w	r3, [r5, #248]	; 0xf8
10001c72:	2b01      	cmp	r3, #1
10001c74:	d10f      	bne.n	10001c96 <HAL_RCCEx_PeriphCLKConfig+0x42a>
10001c76:	f105 0080 	add.w	r0, r5, #128	; 0x80
10001c7a:	f7ff fd2b 	bl	100016d4 <RCCEx_PLL4_Config>
10001c7e:	4604      	mov	r4, r0
10001c80:	2800      	cmp	r0, #0
10001c82:	f040 84eb 	bne.w	1000265c <HAL_RCCEx_PeriphCLKConfig+0xdf0>
10001c86:	f04f 42a0 	mov.w	r2, #1342177280	; 0x50000000
10001c8a:	f8d2 3894 	ldr.w	r3, [r2, #2196]	; 0x894
10001c8e:	f043 0320 	orr.w	r3, r3, #32
10001c92:	f8c2 3894 	str.w	r3, [r2, #2196]	; 0x894
10001c96:	f04f 42a0 	mov.w	r2, #1342177280	; 0x50000000
10001c9a:	f8d5 10f8 	ldr.w	r1, [r5, #248]	; 0xf8
10001c9e:	f8d2 38f0 	ldr.w	r3, [r2, #2288]	; 0x8f0
10001ca2:	f023 0307 	bic.w	r3, r3, #7
10001ca6:	430b      	orrs	r3, r1
10001ca8:	f8c2 38f0 	str.w	r3, [r2, #2288]	; 0x8f0
10001cac:	682b      	ldr	r3, [r5, #0]
10001cae:	07d9      	lsls	r1, r3, #31
10001cb0:	d512      	bpl.n	10001cd8 <HAL_RCCEx_PeriphCLKConfig+0x46c>
10001cb2:	f8d5 30e8 	ldr.w	r3, [r5, #232]	; 0xe8
10001cb6:	2b01      	cmp	r3, #1
10001cb8:	f000 8360 	beq.w	1000237c <HAL_RCCEx_PeriphCLKConfig+0xb10>
10001cbc:	2b04      	cmp	r3, #4
10001cbe:	f000 836e 	beq.w	1000239e <HAL_RCCEx_PeriphCLKConfig+0xb32>
10001cc2:	f04f 42a0 	mov.w	r2, #1342177280	; 0x50000000
10001cc6:	f8d5 10e8 	ldr.w	r1, [r5, #232]	; 0xe8
10001cca:	f8d2 30c8 	ldr.w	r3, [r2, #200]	; 0xc8
10001cce:	f023 0307 	bic.w	r3, r3, #7
10001cd2:	430b      	orrs	r3, r1
10001cd4:	f8c2 30c8 	str.w	r3, [r2, #200]	; 0xc8
10001cd8:	682b      	ldr	r3, [r5, #0]
10001cda:	2b00      	cmp	r3, #0
10001cdc:	da12      	bge.n	10001d04 <HAL_RCCEx_PeriphCLKConfig+0x498>
10001cde:	f8d5 30fc 	ldr.w	r3, [r5, #252]	; 0xfc
10001ce2:	2b01      	cmp	r3, #1
10001ce4:	f000 836c 	beq.w	100023c0 <HAL_RCCEx_PeriphCLKConfig+0xb54>
10001ce8:	2b02      	cmp	r3, #2
10001cea:	f000 837a 	beq.w	100023e2 <HAL_RCCEx_PeriphCLKConfig+0xb76>
10001cee:	f04f 42a0 	mov.w	r2, #1342177280	; 0x50000000
10001cf2:	f8d5 10fc 	ldr.w	r1, [r5, #252]	; 0xfc
10001cf6:	f8d2 38f4 	ldr.w	r3, [r2, #2292]	; 0x8f4
10001cfa:	f023 0307 	bic.w	r3, r3, #7
10001cfe:	430b      	orrs	r3, r1
10001d00:	f8c2 38f4 	str.w	r3, [r2, #2292]	; 0x8f4
10001d04:	686b      	ldr	r3, [r5, #4]
10001d06:	07da      	lsls	r2, r3, #31
10001d08:	d512      	bpl.n	10001d30 <HAL_RCCEx_PeriphCLKConfig+0x4c4>
10001d0a:	f8d5 3100 	ldr.w	r3, [r5, #256]	; 0x100
10001d0e:	2b01      	cmp	r3, #1
10001d10:	f000 8378 	beq.w	10002404 <HAL_RCCEx_PeriphCLKConfig+0xb98>
10001d14:	2b02      	cmp	r3, #2
10001d16:	f000 838b 	beq.w	10002430 <HAL_RCCEx_PeriphCLKConfig+0xbc4>
10001d1a:	f04f 42a0 	mov.w	r2, #1342177280	; 0x50000000
10001d1e:	f8d5 1100 	ldr.w	r1, [r5, #256]	; 0x100
10001d22:	f8d2 38f8 	ldr.w	r3, [r2, #2296]	; 0x8f8
10001d26:	f023 0307 	bic.w	r3, r3, #7
10001d2a:	430b      	orrs	r3, r1
10001d2c:	f8c2 38f8 	str.w	r3, [r2, #2296]	; 0x8f8
10001d30:	686b      	ldr	r3, [r5, #4]
10001d32:	079b      	lsls	r3, r3, #30
10001d34:	d512      	bpl.n	10001d5c <HAL_RCCEx_PeriphCLKConfig+0x4f0>
10001d36:	f8d5 3104 	ldr.w	r3, [r5, #260]	; 0x104
10001d3a:	2b00      	cmp	r3, #0
10001d3c:	f000 8389 	beq.w	10002452 <HAL_RCCEx_PeriphCLKConfig+0xbe6>
10001d40:	2b01      	cmp	r3, #1
10001d42:	f000 8397 	beq.w	10002474 <HAL_RCCEx_PeriphCLKConfig+0xc08>
10001d46:	f04f 42a0 	mov.w	r2, #1342177280	; 0x50000000
10001d4a:	f8d5 1104 	ldr.w	r1, [r5, #260]	; 0x104
10001d4e:	f8d2 38fc 	ldr.w	r3, [r2, #2300]	; 0x8fc
10001d52:	f023 0303 	bic.w	r3, r3, #3
10001d56:	430b      	orrs	r3, r1
10001d58:	f8c2 38fc 	str.w	r3, [r2, #2300]	; 0x8fc
10001d5c:	682b      	ldr	r3, [r5, #0]
10001d5e:	029f      	lsls	r7, r3, #10
10001d60:	d512      	bpl.n	10001d88 <HAL_RCCEx_PeriphCLKConfig+0x51c>
10001d62:	f8d5 310c 	ldr.w	r3, [r5, #268]	; 0x10c
10001d66:	2b01      	cmp	r3, #1
10001d68:	f000 8395 	beq.w	10002496 <HAL_RCCEx_PeriphCLKConfig+0xc2a>
10001d6c:	2b02      	cmp	r3, #2
10001d6e:	f000 83a3 	beq.w	100024b8 <HAL_RCCEx_PeriphCLKConfig+0xc4c>
10001d72:	f04f 42a0 	mov.w	r2, #1342177280	; 0x50000000
10001d76:	f8d5 110c 	ldr.w	r1, [r5, #268]	; 0x10c
10001d7a:	f8d2 3900 	ldr.w	r3, [r2, #2304]	; 0x900
10001d7e:	f023 0303 	bic.w	r3, r3, #3
10001d82:	430b      	orrs	r3, r1
10001d84:	f8c2 3900 	str.w	r3, [r2, #2304]	; 0x900
10001d88:	682b      	ldr	r3, [r5, #0]
10001d8a:	02de      	lsls	r6, r3, #11
10001d8c:	d512      	bpl.n	10001db4 <HAL_RCCEx_PeriphCLKConfig+0x548>
10001d8e:	f8d5 3108 	ldr.w	r3, [r5, #264]	; 0x108
10001d92:	2b01      	cmp	r3, #1
10001d94:	f000 83a1 	beq.w	100024da <HAL_RCCEx_PeriphCLKConfig+0xc6e>
10001d98:	2b02      	cmp	r3, #2
10001d9a:	f000 83af 	beq.w	100024fc <HAL_RCCEx_PeriphCLKConfig+0xc90>
10001d9e:	f04f 42a0 	mov.w	r2, #1342177280	; 0x50000000
10001da2:	f8d5 1108 	ldr.w	r1, [r5, #264]	; 0x108
10001da6:	f8d2 3904 	ldr.w	r3, [r2, #2308]	; 0x904
10001daa:	f023 0303 	bic.w	r3, r3, #3
10001dae:	430b      	orrs	r3, r1
10001db0:	f8c2 3904 	str.w	r3, [r2, #2308]	; 0x904
10001db4:	682b      	ldr	r3, [r5, #0]
10001db6:	019c      	lsls	r4, r3, #6
10001db8:	d524      	bpl.n	10001e04 <HAL_RCCEx_PeriphCLKConfig+0x598>
10001dba:	f8d5 311c 	ldr.w	r3, [r5, #284]	; 0x11c
10001dbe:	2b02      	cmp	r3, #2
10001dc0:	f000 83ad 	beq.w	1000251e <HAL_RCCEx_PeriphCLKConfig+0xcb2>
10001dc4:	2b03      	cmp	r3, #3
10001dc6:	f000 83bb 	beq.w	10002540 <HAL_RCCEx_PeriphCLKConfig+0xcd4>
10001dca:	2b01      	cmp	r3, #1
10001dcc:	d10f      	bne.n	10001dee <HAL_RCCEx_PeriphCLKConfig+0x582>
10001dce:	f105 0044 	add.w	r0, r5, #68	; 0x44
10001dd2:	f7ff fba5 	bl	10001520 <RCCEx_PLL3_Config>
10001dd6:	4604      	mov	r4, r0
10001dd8:	2800      	cmp	r0, #0
10001dda:	f040 843f 	bne.w	1000265c <HAL_RCCEx_PeriphCLKConfig+0xdf0>
10001dde:	f04f 42a0 	mov.w	r2, #1342177280	; 0x50000000
10001de2:	f8d2 3880 	ldr.w	r3, [r2, #2176]	; 0x880
10001de6:	f043 0320 	orr.w	r3, r3, #32
10001dea:	f8c2 3880 	str.w	r3, [r2, #2176]	; 0x880
10001dee:	f04f 42a0 	mov.w	r2, #1342177280	; 0x50000000
10001df2:	f8d5 111c 	ldr.w	r1, [r5, #284]	; 0x11c
10001df6:	f8d2 390c 	ldr.w	r3, [r2, #2316]	; 0x90c
10001dfa:	f023 0303 	bic.w	r3, r3, #3
10001dfe:	430b      	orrs	r3, r1
10001e00:	f8c2 390c 	str.w	r3, [r2, #2316]	; 0x90c
10001e04:	682b      	ldr	r3, [r5, #0]
10001e06:	01d8      	lsls	r0, r3, #7
10001e08:	d512      	bpl.n	10001e30 <HAL_RCCEx_PeriphCLKConfig+0x5c4>
10001e0a:	f8d5 3118 	ldr.w	r3, [r5, #280]	; 0x118
10001e0e:	2b00      	cmp	r3, #0
10001e10:	f000 83a5 	beq.w	1000255e <HAL_RCCEx_PeriphCLKConfig+0xcf2>
10001e14:	2b01      	cmp	r3, #1
10001e16:	f000 83b2 	beq.w	1000257e <HAL_RCCEx_PeriphCLKConfig+0xd12>
10001e1a:	f04f 42a0 	mov.w	r2, #1342177280	; 0x50000000
10001e1e:	f8d5 1118 	ldr.w	r1, [r5, #280]	; 0x118
10001e22:	f8d2 3914 	ldr.w	r3, [r2, #2324]	; 0x914
10001e26:	f023 0303 	bic.w	r3, r3, #3
10001e2a:	430b      	orrs	r3, r1
10001e2c:	f8c2 3914 	str.w	r3, [r2, #2324]	; 0x914
10001e30:	682a      	ldr	r2, [r5, #0]
10001e32:	0491      	lsls	r1, r2, #18
10001e34:	d50a      	bpl.n	10001e4c <HAL_RCCEx_PeriphCLKConfig+0x5e0>
10001e36:	f04f 41a0 	mov.w	r1, #1342177280	; 0x50000000
10001e3a:	f8d5 0134 	ldr.w	r0, [r5, #308]	; 0x134
10001e3e:	f8d1 3918 	ldr.w	r3, [r1, #2328]	; 0x918
10001e42:	f023 0303 	bic.w	r3, r3, #3
10001e46:	4303      	orrs	r3, r0
10001e48:	f8c1 3918 	str.w	r3, [r1, #2328]	; 0x918
10001e4c:	0593      	lsls	r3, r2, #22
10001e4e:	d51e      	bpl.n	10001e8e <HAL_RCCEx_PeriphCLKConfig+0x622>
10001e50:	f8d5 312c 	ldr.w	r3, [r5, #300]	; 0x12c
10001e54:	2b01      	cmp	r3, #1
10001e56:	d10f      	bne.n	10001e78 <HAL_RCCEx_PeriphCLKConfig+0x60c>
10001e58:	f105 0080 	add.w	r0, r5, #128	; 0x80
10001e5c:	f7ff fc3a 	bl	100016d4 <RCCEx_PLL4_Config>
10001e60:	4604      	mov	r4, r0
10001e62:	2800      	cmp	r0, #0
10001e64:	f040 83fa 	bne.w	1000265c <HAL_RCCEx_PeriphCLKConfig+0xdf0>
10001e68:	f04f 42a0 	mov.w	r2, #1342177280	; 0x50000000
10001e6c:	f8d2 3894 	ldr.w	r3, [r2, #2196]	; 0x894
10001e70:	f043 0340 	orr.w	r3, r3, #64	; 0x40
10001e74:	f8c2 3894 	str.w	r3, [r2, #2196]	; 0x894
10001e78:	f04f 42a0 	mov.w	r2, #1342177280	; 0x50000000
10001e7c:	f8d5 112c 	ldr.w	r1, [r5, #300]	; 0x12c
10001e80:	f8d2 391c 	ldr.w	r3, [r2, #2332]	; 0x91c
10001e84:	f023 0303 	bic.w	r3, r3, #3
10001e88:	430b      	orrs	r3, r1
10001e8a:	f8c2 391c 	str.w	r3, [r2, #2332]	; 0x91c
10001e8e:	682b      	ldr	r3, [r5, #0]
10001e90:	031f      	lsls	r7, r3, #12
10001e92:	d51d      	bpl.n	10001ed0 <HAL_RCCEx_PeriphCLKConfig+0x664>
10001e94:	f8d5 3130 	ldr.w	r3, [r5, #304]	; 0x130
10001e98:	b97b      	cbnz	r3, 10001eba <HAL_RCCEx_PeriphCLKConfig+0x64e>
10001e9a:	f105 0080 	add.w	r0, r5, #128	; 0x80
10001e9e:	f7ff fc19 	bl	100016d4 <RCCEx_PLL4_Config>
10001ea2:	4604      	mov	r4, r0
10001ea4:	2800      	cmp	r0, #0
10001ea6:	f040 83d9 	bne.w	1000265c <HAL_RCCEx_PeriphCLKConfig+0xdf0>
10001eaa:	f04f 42a0 	mov.w	r2, #1342177280	; 0x50000000
10001eae:	f8d2 3894 	ldr.w	r3, [r2, #2196]	; 0x894
10001eb2:	f043 0340 	orr.w	r3, r3, #64	; 0x40
10001eb6:	f8c2 3894 	str.w	r3, [r2, #2196]	; 0x894
10001eba:	f04f 42a0 	mov.w	r2, #1342177280	; 0x50000000
10001ebe:	f8d5 1130 	ldr.w	r1, [r5, #304]	; 0x130
10001ec2:	f8d2 391c 	ldr.w	r3, [r2, #2332]	; 0x91c
10001ec6:	f023 0310 	bic.w	r3, r3, #16
10001eca:	430b      	orrs	r3, r1
10001ecc:	f8c2 391c 	str.w	r3, [r2, #2332]	; 0x91c
10001ed0:	686b      	ldr	r3, [r5, #4]
10001ed2:	075e      	lsls	r6, r3, #29
10001ed4:	d51e      	bpl.n	10001f14 <HAL_RCCEx_PeriphCLKConfig+0x6a8>
10001ed6:	f8d5 3120 	ldr.w	r3, [r5, #288]	; 0x120
10001eda:	2b01      	cmp	r3, #1
10001edc:	d10f      	bne.n	10001efe <HAL_RCCEx_PeriphCLKConfig+0x692>
10001ede:	f105 0080 	add.w	r0, r5, #128	; 0x80
10001ee2:	f7ff fbf7 	bl	100016d4 <RCCEx_PLL4_Config>
10001ee6:	4604      	mov	r4, r0
10001ee8:	2800      	cmp	r0, #0
10001eea:	f040 83b7 	bne.w	1000265c <HAL_RCCEx_PeriphCLKConfig+0xdf0>
10001eee:	f04f 42a0 	mov.w	r2, #1342177280	; 0x50000000
10001ef2:	f8d2 3894 	ldr.w	r3, [r2, #2196]	; 0x894
10001ef6:	f043 0340 	orr.w	r3, r3, #64	; 0x40
10001efa:	f8c2 3894 	str.w	r3, [r2, #2196]	; 0x894
10001efe:	f04f 42a0 	mov.w	r2, #1342177280	; 0x50000000
10001f02:	f8d5 1120 	ldr.w	r1, [r5, #288]	; 0x120
10001f06:	f8d2 30cc 	ldr.w	r3, [r2, #204]	; 0xcc
10001f0a:	f023 0303 	bic.w	r3, r3, #3
10001f0e:	430b      	orrs	r3, r1
10001f10:	f8c2 30cc 	str.w	r3, [r2, #204]	; 0xcc
10001f14:	686b      	ldr	r3, [r5, #4]
10001f16:	071c      	lsls	r4, r3, #28
10001f18:	d51e      	bpl.n	10001f58 <HAL_RCCEx_PeriphCLKConfig+0x6ec>
10001f1a:	f8d5 3124 	ldr.w	r3, [r5, #292]	; 0x124
10001f1e:	2b01      	cmp	r3, #1
10001f20:	d10f      	bne.n	10001f42 <HAL_RCCEx_PeriphCLKConfig+0x6d6>
10001f22:	f105 0080 	add.w	r0, r5, #128	; 0x80
10001f26:	f7ff fbd5 	bl	100016d4 <RCCEx_PLL4_Config>
10001f2a:	4604      	mov	r4, r0
10001f2c:	2800      	cmp	r0, #0
10001f2e:	f040 8395 	bne.w	1000265c <HAL_RCCEx_PeriphCLKConfig+0xdf0>
10001f32:	f04f 42a0 	mov.w	r2, #1342177280	; 0x50000000
10001f36:	f8d2 3894 	ldr.w	r3, [r2, #2196]	; 0x894
10001f3a:	f043 0340 	orr.w	r3, r3, #64	; 0x40
10001f3e:	f8c2 3894 	str.w	r3, [r2, #2196]	; 0x894
10001f42:	f04f 42a0 	mov.w	r2, #1342177280	; 0x50000000
10001f46:	f8d5 1124 	ldr.w	r1, [r5, #292]	; 0x124
10001f4a:	f8d2 3920 	ldr.w	r3, [r2, #2336]	; 0x920
10001f4e:	f023 0303 	bic.w	r3, r3, #3
10001f52:	430b      	orrs	r3, r1
10001f54:	f8c2 3920 	str.w	r3, [r2, #2336]	; 0x920
10001f58:	e9d5 1300 	ldrd	r1, r3, [r5]
10001f5c:	06d8      	lsls	r0, r3, #27
10001f5e:	d50a      	bpl.n	10001f76 <HAL_RCCEx_PeriphCLKConfig+0x70a>
10001f60:	f04f 42a0 	mov.w	r2, #1342177280	; 0x50000000
10001f64:	f8d5 0128 	ldr.w	r0, [r5, #296]	; 0x128
10001f68:	f8d2 30d4 	ldr.w	r3, [r2, #212]	; 0xd4
10001f6c:	f023 0303 	bic.w	r3, r3, #3
10001f70:	4303      	orrs	r3, r0
10001f72:	f8c2 30d4 	str.w	r3, [r2, #212]	; 0xd4
10001f76:	024a      	lsls	r2, r1, #9
10001f78:	d51e      	bpl.n	10001fb8 <HAL_RCCEx_PeriphCLKConfig+0x74c>
10001f7a:	f8d5 3110 	ldr.w	r3, [r5, #272]	; 0x110
10001f7e:	2b01      	cmp	r3, #1
10001f80:	d10f      	bne.n	10001fa2 <HAL_RCCEx_PeriphCLKConfig+0x736>
10001f82:	f105 0080 	add.w	r0, r5, #128	; 0x80
10001f86:	f7ff fba5 	bl	100016d4 <RCCEx_PLL4_Config>
10001f8a:	4604      	mov	r4, r0
10001f8c:	2800      	cmp	r0, #0
10001f8e:	f040 8365 	bne.w	1000265c <HAL_RCCEx_PeriphCLKConfig+0xdf0>
10001f92:	f04f 42a0 	mov.w	r2, #1342177280	; 0x50000000
10001f96:	f8d2 3894 	ldr.w	r3, [r2, #2196]	; 0x894
10001f9a:	f043 0310 	orr.w	r3, r3, #16
10001f9e:	f8c2 3894 	str.w	r3, [r2, #2196]	; 0x894
10001fa2:	f04f 42a0 	mov.w	r2, #1342177280	; 0x50000000
10001fa6:	f8d5 1110 	ldr.w	r1, [r5, #272]	; 0x110
10001faa:	f8d2 3924 	ldr.w	r3, [r2, #2340]	; 0x924
10001fae:	f023 0301 	bic.w	r3, r3, #1
10001fb2:	430b      	orrs	r3, r1
10001fb4:	f8c2 3924 	str.w	r3, [r2, #2340]	; 0x924
10001fb8:	682b      	ldr	r3, [r5, #0]
10001fba:	071b      	lsls	r3, r3, #28
10001fbc:	d512      	bpl.n	10001fe4 <HAL_RCCEx_PeriphCLKConfig+0x778>
10001fbe:	f8d5 3144 	ldr.w	r3, [r5, #324]	; 0x144
10001fc2:	2b00      	cmp	r3, #0
10001fc4:	f000 82eb 	beq.w	1000259e <HAL_RCCEx_PeriphCLKConfig+0xd32>
10001fc8:	2b02      	cmp	r3, #2
10001fca:	f000 82f8 	beq.w	100025be <HAL_RCCEx_PeriphCLKConfig+0xd52>
10001fce:	f04f 42a0 	mov.w	r2, #1342177280	; 0x50000000
10001fd2:	f8d5 1144 	ldr.w	r1, [r5, #324]	; 0x144
10001fd6:	f8d2 3928 	ldr.w	r3, [r2, #2344]	; 0x928
10001fda:	f023 0303 	bic.w	r3, r3, #3
10001fde:	430b      	orrs	r3, r1
10001fe0:	f8c2 3928 	str.w	r3, [r2, #2344]	; 0x928
10001fe4:	682b      	ldr	r3, [r5, #0]
10001fe6:	039f      	lsls	r7, r3, #14
10001fe8:	d521      	bpl.n	1000202e <HAL_RCCEx_PeriphCLKConfig+0x7c2>
10001fea:	f8d5 3140 	ldr.w	r3, [r5, #320]	; 0x140
10001fee:	2b01      	cmp	r3, #1
10001ff0:	f000 82f5 	beq.w	100025de <HAL_RCCEx_PeriphCLKConfig+0xd72>
10001ff4:	2b02      	cmp	r3, #2
10001ff6:	d10f      	bne.n	10002018 <HAL_RCCEx_PeriphCLKConfig+0x7ac>
10001ff8:	f105 0044 	add.w	r0, r5, #68	; 0x44
10001ffc:	f7ff fa90 	bl	10001520 <RCCEx_PLL3_Config>
10002000:	4604      	mov	r4, r0
10002002:	2800      	cmp	r0, #0
10002004:	f040 832a 	bne.w	1000265c <HAL_RCCEx_PeriphCLKConfig+0xdf0>
10002008:	f04f 42a0 	mov.w	r2, #1342177280	; 0x50000000
1000200c:	f8d2 3880 	ldr.w	r3, [r2, #2176]	; 0x880
10002010:	f043 0320 	orr.w	r3, r3, #32
10002014:	f8c2 3880 	str.w	r3, [r2, #2176]	; 0x880
10002018:	f04f 42a0 	mov.w	r2, #1342177280	; 0x50000000
1000201c:	f8d5 1140 	ldr.w	r1, [r5, #320]	; 0x140
10002020:	f8d2 392c 	ldr.w	r3, [r2, #2348]	; 0x92c
10002024:	f023 0307 	bic.w	r3, r3, #7
10002028:	430b      	orrs	r3, r1
1000202a:	f8c2 392c 	str.w	r3, [r2, #2348]	; 0x92c
1000202e:	682b      	ldr	r3, [r5, #0]
10002030:	03de      	lsls	r6, r3, #15
10002032:	d51e      	bpl.n	10002072 <HAL_RCCEx_PeriphCLKConfig+0x806>
10002034:	f8d5 313c 	ldr.w	r3, [r5, #316]	; 0x13c
10002038:	2b01      	cmp	r3, #1
1000203a:	d10f      	bne.n	1000205c <HAL_RCCEx_PeriphCLKConfig+0x7f0>
1000203c:	f105 0080 	add.w	r0, r5, #128	; 0x80
10002040:	f7ff fb48 	bl	100016d4 <RCCEx_PLL4_Config>
10002044:	4604      	mov	r4, r0
10002046:	2800      	cmp	r0, #0
10002048:	f040 8308 	bne.w	1000265c <HAL_RCCEx_PeriphCLKConfig+0xdf0>
1000204c:	f04f 42a0 	mov.w	r2, #1342177280	; 0x50000000
10002050:	f8d2 3894 	ldr.w	r3, [r2, #2196]	; 0x894
10002054:	f043 0320 	orr.w	r3, r3, #32
10002058:	f8c2 3894 	str.w	r3, [r2, #2196]	; 0x894
1000205c:	f04f 42a0 	mov.w	r2, #1342177280	; 0x50000000
10002060:	f8d5 113c 	ldr.w	r1, [r5, #316]	; 0x13c
10002064:	f8d2 3930 	ldr.w	r3, [r2, #2352]	; 0x930
10002068:	f023 0307 	bic.w	r3, r3, #7
1000206c:	430b      	orrs	r3, r1
1000206e:	f8c2 3930 	str.w	r3, [r2, #2352]	; 0x930
10002072:	682b      	ldr	r3, [r5, #0]
10002074:	065c      	lsls	r4, r3, #25
10002076:	d521      	bpl.n	100020bc <HAL_RCCEx_PeriphCLKConfig+0x850>
10002078:	f8d5 3138 	ldr.w	r3, [r5, #312]	; 0x138
1000207c:	2b01      	cmp	r3, #1
1000207e:	f000 82bd 	beq.w	100025fc <HAL_RCCEx_PeriphCLKConfig+0xd90>
10002082:	2b02      	cmp	r3, #2
10002084:	d10f      	bne.n	100020a6 <HAL_RCCEx_PeriphCLKConfig+0x83a>
10002086:	f105 0044 	add.w	r0, r5, #68	; 0x44
1000208a:	f7ff fa49 	bl	10001520 <RCCEx_PLL3_Config>
1000208e:	4604      	mov	r4, r0
10002090:	2800      	cmp	r0, #0
10002092:	f040 82e3 	bne.w	1000265c <HAL_RCCEx_PeriphCLKConfig+0xdf0>
10002096:	f04f 42a0 	mov.w	r2, #1342177280	; 0x50000000
1000209a:	f8d2 3880 	ldr.w	r3, [r2, #2176]	; 0x880
1000209e:	f043 0320 	orr.w	r3, r3, #32
100020a2:	f8c2 3880 	str.w	r3, [r2, #2176]	; 0x880
100020a6:	f04f 42a0 	mov.w	r2, #1342177280	; 0x50000000
100020aa:	f8d5 1138 	ldr.w	r1, [r5, #312]	; 0x138
100020ae:	f8d2 3934 	ldr.w	r3, [r2, #2356]	; 0x934
100020b2:	f023 0307 	bic.w	r3, r3, #7
100020b6:	430b      	orrs	r3, r1
100020b8:	f8c2 3934 	str.w	r3, [r2, #2356]	; 0x934
100020bc:	682b      	ldr	r3, [r5, #0]
100020be:	04d8      	lsls	r0, r3, #19
100020c0:	d558      	bpl.n	10002174 <HAL_RCCEx_PeriphCLKConfig+0x908>
100020c2:	4ed9      	ldr	r6, [pc, #868]	; (10002428 <HAL_RCCEx_PeriphCLKConfig+0xbbc>)
100020c4:	6833      	ldr	r3, [r6, #0]
100020c6:	f443 7380 	orr.w	r3, r3, #256	; 0x100
100020ca:	6033      	str	r3, [r6, #0]
100020cc:	f7fe fa04 	bl	100004d8 <HAL_GetTick>
100020d0:	2400      	movs	r4, #0
100020d2:	4607      	mov	r7, r0
100020d4:	6833      	ldr	r3, [r6, #0]
100020d6:	05d9      	lsls	r1, r3, #23
100020d8:	f140 829f 	bpl.w	1000261a <HAL_RCCEx_PeriphCLKConfig+0xdae>
100020dc:	2c00      	cmp	r4, #0
100020de:	f040 82bd 	bne.w	1000265c <HAL_RCCEx_PeriphCLKConfig+0xdf0>
100020e2:	f04f 46a0 	mov.w	r6, #1342177280	; 0x50000000
100020e6:	f8d5 2148 	ldr.w	r2, [r5, #328]	; 0x148
100020ea:	f8d6 3140 	ldr.w	r3, [r6, #320]	; 0x140
100020ee:	4053      	eors	r3, r2
100020f0:	f413 3f40 	tst.w	r3, #196608	; 0x30000
100020f4:	d036      	beq.n	10002164 <HAL_RCCEx_PeriphCLKConfig+0x8f8>
100020f6:	f8d6 7140 	ldr.w	r7, [r6, #320]	; 0x140
100020fa:	f8d6 3140 	ldr.w	r3, [r6, #320]	; 0x140
100020fe:	f043 4300 	orr.w	r3, r3, #2147483648	; 0x80000000
10002102:	f8c6 3140 	str.w	r3, [r6, #320]	; 0x140
10002106:	f8d6 3140 	ldr.w	r3, [r6, #320]	; 0x140
1000210a:	f023 4300 	bic.w	r3, r3, #2147483648	; 0x80000000
1000210e:	f8c6 3140 	str.w	r3, [r6, #320]	; 0x140
10002112:	f8d6 3140 	ldr.w	r3, [r6, #320]	; 0x140
10002116:	f007 0230 	and.w	r2, r7, #48	; 0x30
1000211a:	f023 0330 	bic.w	r3, r3, #48	; 0x30
1000211e:	4313      	orrs	r3, r2
10002120:	f8c6 3140 	str.w	r3, [r6, #320]	; 0x140
10002124:	2304      	movs	r3, #4
10002126:	9301      	str	r3, [sp, #4]
10002128:	a801      	add	r0, sp, #4
1000212a:	f007 030b 	and.w	r3, r7, #11
1000212e:	940a      	str	r4, [sp, #40]	; 0x28
10002130:	9419      	str	r4, [sp, #100]	; 0x64
10002132:	9428      	str	r4, [sp, #160]	; 0xa0
10002134:	9437      	str	r4, [sp, #220]	; 0xdc
10002136:	9303      	str	r3, [sp, #12]
10002138:	f7fe fdee 	bl	10000d18 <HAL_RCC_OscConfig>
1000213c:	4604      	mov	r4, r0
1000213e:	2800      	cmp	r0, #0
10002140:	f040 828c 	bne.w	1000265c <HAL_RCCEx_PeriphCLKConfig+0xdf0>
10002144:	f8d6 3140 	ldr.w	r3, [r6, #320]	; 0x140
10002148:	f8d5 2148 	ldr.w	r2, [r5, #328]	; 0x148
1000214c:	f423 3340 	bic.w	r3, r3, #196608	; 0x30000
10002150:	4313      	orrs	r3, r2
10002152:	f8c6 3140 	str.w	r3, [r6, #320]	; 0x140
10002156:	4bb5      	ldr	r3, [pc, #724]	; (1000242c <HAL_RCCEx_PeriphCLKConfig+0xbc0>)
10002158:	f8d6 2140 	ldr.w	r2, [r6, #320]	; 0x140
1000215c:	403b      	ands	r3, r7
1000215e:	4313      	orrs	r3, r2
10002160:	f8c6 3140 	str.w	r3, [r6, #320]	; 0x140
10002164:	f04f 42a0 	mov.w	r2, #1342177280	; 0x50000000
10002168:	f8d2 3140 	ldr.w	r3, [r2, #320]	; 0x140
1000216c:	f443 1380 	orr.w	r3, r3, #1048576	; 0x100000
10002170:	f8c2 3140 	str.w	r3, [r2, #320]	; 0x140
10002174:	682b      	ldr	r3, [r5, #0]
10002176:	055a      	lsls	r2, r3, #21
10002178:	f100 8256 	bmi.w	10002628 <HAL_RCCEx_PeriphCLKConfig+0xdbc>
1000217c:	682b      	ldr	r3, [r5, #0]
1000217e:	051b      	lsls	r3, r3, #20
10002180:	d512      	bpl.n	100021a8 <HAL_RCCEx_PeriphCLKConfig+0x93c>
10002182:	f04f 44a0 	mov.w	r4, #1342177280	; 0x50000000
10002186:	f8d5 2150 	ldr.w	r2, [r5, #336]	; 0x150
1000218a:	f8d4 382c 	ldr.w	r3, [r4, #2092]	; 0x82c
1000218e:	f023 0301 	bic.w	r3, r3, #1
10002192:	4313      	orrs	r3, r2
10002194:	f8c4 382c 	str.w	r3, [r4, #2092]	; 0x82c
10002198:	f7fe f99e 	bl	100004d8 <HAL_GetTick>
1000219c:	4605      	mov	r5, r0
1000219e:	f8d4 382c 	ldr.w	r3, [r4, #2092]	; 0x82c
100021a2:	2b00      	cmp	r3, #0
100021a4:	f280 825d 	bge.w	10002662 <HAL_RCCEx_PeriphCLKConfig+0xdf6>
100021a8:	2400      	movs	r4, #0
100021aa:	e257      	b.n	1000265c <HAL_RCCEx_PeriphCLKConfig+0xdf0>
100021ac:	f105 0044 	add.w	r0, r5, #68	; 0x44
100021b0:	f7ff f9b6 	bl	10001520 <RCCEx_PLL3_Config>
100021b4:	4604      	mov	r4, r0
100021b6:	2800      	cmp	r0, #0
100021b8:	f040 8250 	bne.w	1000265c <HAL_RCCEx_PeriphCLKConfig+0xdf0>
100021bc:	f04f 42a0 	mov.w	r2, #1342177280	; 0x50000000
100021c0:	f8d2 3880 	ldr.w	r3, [r2, #2176]	; 0x880
100021c4:	f043 0320 	orr.w	r3, r3, #32
100021c8:	f8c2 3880 	str.w	r3, [r2, #2176]	; 0x880
100021cc:	f7ff bbe0 	b.w	10001990 <HAL_RCCEx_PeriphCLKConfig+0x124>
100021d0:	f105 0044 	add.w	r0, r5, #68	; 0x44
100021d4:	f7ff f9a4 	bl	10001520 <RCCEx_PLL3_Config>
100021d8:	4604      	mov	r4, r0
100021da:	2800      	cmp	r0, #0
100021dc:	f040 823e 	bne.w	1000265c <HAL_RCCEx_PeriphCLKConfig+0xdf0>
100021e0:	f04f 42a0 	mov.w	r2, #1342177280	; 0x50000000
100021e4:	f8d2 3880 	ldr.w	r3, [r2, #2176]	; 0x880
100021e8:	f043 0340 	orr.w	r3, r3, #64	; 0x40
100021ec:	e7ec      	b.n	100021c8 <HAL_RCCEx_PeriphCLKConfig+0x95c>
100021ee:	f105 0044 	add.w	r0, r5, #68	; 0x44
100021f2:	f7ff f995 	bl	10001520 <RCCEx_PLL3_Config>
100021f6:	4604      	mov	r4, r0
100021f8:	2800      	cmp	r0, #0
100021fa:	f040 822f 	bne.w	1000265c <HAL_RCCEx_PeriphCLKConfig+0xdf0>
100021fe:	f04f 42a0 	mov.w	r2, #1342177280	; 0x50000000
10002202:	f8d2 3880 	ldr.w	r3, [r2, #2176]	; 0x880
10002206:	f043 0320 	orr.w	r3, r3, #32
1000220a:	f8c2 3880 	str.w	r3, [r2, #2176]	; 0x880
1000220e:	f7ff bbe6 	b.w	100019de <HAL_RCCEx_PeriphCLKConfig+0x172>
10002212:	f105 0044 	add.w	r0, r5, #68	; 0x44
10002216:	f7ff f983 	bl	10001520 <RCCEx_PLL3_Config>
1000221a:	4604      	mov	r4, r0
1000221c:	2800      	cmp	r0, #0
1000221e:	f040 821d 	bne.w	1000265c <HAL_RCCEx_PeriphCLKConfig+0xdf0>
10002222:	f04f 42a0 	mov.w	r2, #1342177280	; 0x50000000
10002226:	f8d2 3880 	ldr.w	r3, [r2, #2176]	; 0x880
1000222a:	f043 0340 	orr.w	r3, r3, #64	; 0x40
1000222e:	e7ec      	b.n	1000220a <HAL_RCCEx_PeriphCLKConfig+0x99e>
10002230:	f105 0044 	add.w	r0, r5, #68	; 0x44
10002234:	f7ff f974 	bl	10001520 <RCCEx_PLL3_Config>
10002238:	4604      	mov	r4, r0
1000223a:	2800      	cmp	r0, #0
1000223c:	f040 820e 	bne.w	1000265c <HAL_RCCEx_PeriphCLKConfig+0xdf0>
10002240:	f04f 42a0 	mov.w	r2, #1342177280	; 0x50000000
10002244:	f8d2 3880 	ldr.w	r3, [r2, #2176]	; 0x880
10002248:	f043 0320 	orr.w	r3, r3, #32
1000224c:	f8c2 3880 	str.w	r3, [r2, #2176]	; 0x880
10002250:	f7ff bbec 	b.w	10001a2c <HAL_RCCEx_PeriphCLKConfig+0x1c0>
10002254:	f105 0044 	add.w	r0, r5, #68	; 0x44
10002258:	f7ff f962 	bl	10001520 <RCCEx_PLL3_Config>
1000225c:	4604      	mov	r4, r0
1000225e:	2800      	cmp	r0, #0
10002260:	f040 81fc 	bne.w	1000265c <HAL_RCCEx_PeriphCLKConfig+0xdf0>
10002264:	f04f 42a0 	mov.w	r2, #1342177280	; 0x50000000
10002268:	f8d2 3880 	ldr.w	r3, [r2, #2176]	; 0x880
1000226c:	f043 0340 	orr.w	r3, r3, #64	; 0x40
10002270:	e7ec      	b.n	1000224c <HAL_RCCEx_PeriphCLKConfig+0x9e0>
10002272:	f105 0044 	add.w	r0, r5, #68	; 0x44
10002276:	f7ff f953 	bl	10001520 <RCCEx_PLL3_Config>
1000227a:	4604      	mov	r4, r0
1000227c:	2800      	cmp	r0, #0
1000227e:	f040 81ed 	bne.w	1000265c <HAL_RCCEx_PeriphCLKConfig+0xdf0>
10002282:	f04f 42a0 	mov.w	r2, #1342177280	; 0x50000000
10002286:	f8d2 3880 	ldr.w	r3, [r2, #2176]	; 0x880
1000228a:	f043 0320 	orr.w	r3, r3, #32
1000228e:	f8c2 3880 	str.w	r3, [r2, #2176]	; 0x880
10002292:	f7ff bbf2 	b.w	10001a7a <HAL_RCCEx_PeriphCLKConfig+0x20e>
10002296:	f105 0044 	add.w	r0, r5, #68	; 0x44
1000229a:	f7ff f941 	bl	10001520 <RCCEx_PLL3_Config>
1000229e:	4604      	mov	r4, r0
100022a0:	2800      	cmp	r0, #0
100022a2:	f040 81db 	bne.w	1000265c <HAL_RCCEx_PeriphCLKConfig+0xdf0>
100022a6:	f04f 42a0 	mov.w	r2, #1342177280	; 0x50000000
100022aa:	f8d2 3880 	ldr.w	r3, [r2, #2176]	; 0x880
100022ae:	f043 0340 	orr.w	r3, r3, #64	; 0x40
100022b2:	e7ec      	b.n	1000228e <HAL_RCCEx_PeriphCLKConfig+0xa22>
100022b4:	f105 0044 	add.w	r0, r5, #68	; 0x44
100022b8:	f7ff f932 	bl	10001520 <RCCEx_PLL3_Config>
100022bc:	4604      	mov	r4, r0
100022be:	2800      	cmp	r0, #0
100022c0:	f040 81cc 	bne.w	1000265c <HAL_RCCEx_PeriphCLKConfig+0xdf0>
100022c4:	f04f 42a0 	mov.w	r2, #1342177280	; 0x50000000
100022c8:	f8d2 3880 	ldr.w	r3, [r2, #2176]	; 0x880
100022cc:	f043 0320 	orr.w	r3, r3, #32
100022d0:	f8c2 3880 	str.w	r3, [r2, #2176]	; 0x880
100022d4:	f7ff bbf8 	b.w	10001ac8 <HAL_RCCEx_PeriphCLKConfig+0x25c>
100022d8:	f105 0044 	add.w	r0, r5, #68	; 0x44
100022dc:	f7ff f920 	bl	10001520 <RCCEx_PLL3_Config>
100022e0:	4604      	mov	r4, r0
100022e2:	2800      	cmp	r0, #0
100022e4:	f040 81ba 	bne.w	1000265c <HAL_RCCEx_PeriphCLKConfig+0xdf0>
100022e8:	f04f 42a0 	mov.w	r2, #1342177280	; 0x50000000
100022ec:	f8d2 3880 	ldr.w	r3, [r2, #2176]	; 0x880
100022f0:	f043 0340 	orr.w	r3, r3, #64	; 0x40
100022f4:	e7ec      	b.n	100022d0 <HAL_RCCEx_PeriphCLKConfig+0xa64>
100022f6:	f105 0044 	add.w	r0, r5, #68	; 0x44
100022fa:	f7ff f911 	bl	10001520 <RCCEx_PLL3_Config>
100022fe:	4604      	mov	r4, r0
10002300:	2800      	cmp	r0, #0
10002302:	f040 81ab 	bne.w	1000265c <HAL_RCCEx_PeriphCLKConfig+0xdf0>
10002306:	f04f 42a0 	mov.w	r2, #1342177280	; 0x50000000
1000230a:	f8d2 3880 	ldr.w	r3, [r2, #2176]	; 0x880
1000230e:	f043 0320 	orr.w	r3, r3, #32
10002312:	f8c2 3880 	str.w	r3, [r2, #2176]	; 0x880
10002316:	f7ff bbfe 	b.w	10001b16 <HAL_RCCEx_PeriphCLKConfig+0x2aa>
1000231a:	f105 0044 	add.w	r0, r5, #68	; 0x44
1000231e:	f7ff f8ff 	bl	10001520 <RCCEx_PLL3_Config>
10002322:	4604      	mov	r4, r0
10002324:	2800      	cmp	r0, #0
10002326:	f040 8199 	bne.w	1000265c <HAL_RCCEx_PeriphCLKConfig+0xdf0>
1000232a:	f04f 42a0 	mov.w	r2, #1342177280	; 0x50000000
1000232e:	f8d2 3880 	ldr.w	r3, [r2, #2176]	; 0x880
10002332:	f043 0340 	orr.w	r3, r3, #64	; 0x40
10002336:	e7ec      	b.n	10002312 <HAL_RCCEx_PeriphCLKConfig+0xaa6>
10002338:	f105 0080 	add.w	r0, r5, #128	; 0x80
1000233c:	f7ff f9ca 	bl	100016d4 <RCCEx_PLL4_Config>
10002340:	4604      	mov	r4, r0
10002342:	2800      	cmp	r0, #0
10002344:	f040 818a 	bne.w	1000265c <HAL_RCCEx_PeriphCLKConfig+0xdf0>
10002348:	f04f 42a0 	mov.w	r2, #1342177280	; 0x50000000
1000234c:	f8d2 3894 	ldr.w	r3, [r2, #2196]	; 0x894
10002350:	f043 0320 	orr.w	r3, r3, #32
10002354:	f8c2 3894 	str.w	r3, [r2, #2196]	; 0x894
10002358:	e415      	b.n	10001b86 <HAL_RCCEx_PeriphCLKConfig+0x31a>
1000235a:	f105 0044 	add.w	r0, r5, #68	; 0x44
1000235e:	f7ff f8df 	bl	10001520 <RCCEx_PLL3_Config>
10002362:	4604      	mov	r4, r0
10002364:	2800      	cmp	r0, #0
10002366:	f040 8179 	bne.w	1000265c <HAL_RCCEx_PeriphCLKConfig+0xdf0>
1000236a:	f04f 42a0 	mov.w	r2, #1342177280	; 0x50000000
1000236e:	f8d2 3880 	ldr.w	r3, [r2, #2176]	; 0x880
10002372:	f043 0320 	orr.w	r3, r3, #32
10002376:	f8c2 3880 	str.w	r3, [r2, #2176]	; 0x880
1000237a:	e404      	b.n	10001b86 <HAL_RCCEx_PeriphCLKConfig+0x31a>
1000237c:	f105 0044 	add.w	r0, r5, #68	; 0x44
10002380:	f7ff f8ce 	bl	10001520 <RCCEx_PLL3_Config>
10002384:	4604      	mov	r4, r0
10002386:	2800      	cmp	r0, #0
10002388:	f040 8168 	bne.w	1000265c <HAL_RCCEx_PeriphCLKConfig+0xdf0>
1000238c:	f04f 42a0 	mov.w	r2, #1342177280	; 0x50000000
10002390:	f8d2 3880 	ldr.w	r3, [r2, #2176]	; 0x880
10002394:	f043 0320 	orr.w	r3, r3, #32
10002398:	f8c2 3880 	str.w	r3, [r2, #2176]	; 0x880
1000239c:	e491      	b.n	10001cc2 <HAL_RCCEx_PeriphCLKConfig+0x456>
1000239e:	f105 0080 	add.w	r0, r5, #128	; 0x80
100023a2:	f7ff f997 	bl	100016d4 <RCCEx_PLL4_Config>
100023a6:	4604      	mov	r4, r0
100023a8:	2800      	cmp	r0, #0
100023aa:	f040 8157 	bne.w	1000265c <HAL_RCCEx_PeriphCLKConfig+0xdf0>
100023ae:	f04f 42a0 	mov.w	r2, #1342177280	; 0x50000000
100023b2:	f8d2 3894 	ldr.w	r3, [r2, #2196]	; 0x894
100023b6:	f043 0320 	orr.w	r3, r3, #32
100023ba:	f8c2 3894 	str.w	r3, [r2, #2196]	; 0x894
100023be:	e480      	b.n	10001cc2 <HAL_RCCEx_PeriphCLKConfig+0x456>
100023c0:	f105 0044 	add.w	r0, r5, #68	; 0x44
100023c4:	f7ff f8ac 	bl	10001520 <RCCEx_PLL3_Config>
100023c8:	4604      	mov	r4, r0
100023ca:	2800      	cmp	r0, #0
100023cc:	f040 8146 	bne.w	1000265c <HAL_RCCEx_PeriphCLKConfig+0xdf0>
100023d0:	f04f 42a0 	mov.w	r2, #1342177280	; 0x50000000
100023d4:	f8d2 3880 	ldr.w	r3, [r2, #2176]	; 0x880
100023d8:	f043 0340 	orr.w	r3, r3, #64	; 0x40
100023dc:	f8c2 3880 	str.w	r3, [r2, #2176]	; 0x880
100023e0:	e485      	b.n	10001cee <HAL_RCCEx_PeriphCLKConfig+0x482>
100023e2:	f105 0080 	add.w	r0, r5, #128	; 0x80
100023e6:	f7ff f975 	bl	100016d4 <RCCEx_PLL4_Config>
100023ea:	4604      	mov	r4, r0
100023ec:	2800      	cmp	r0, #0
100023ee:	f040 8135 	bne.w	1000265c <HAL_RCCEx_PeriphCLKConfig+0xdf0>
100023f2:	f04f 42a0 	mov.w	r2, #1342177280	; 0x50000000
100023f6:	f8d2 3894 	ldr.w	r3, [r2, #2196]	; 0x894
100023fa:	f043 0310 	orr.w	r3, r3, #16
100023fe:	f8c2 3894 	str.w	r3, [r2, #2196]	; 0x894
10002402:	e474      	b.n	10001cee <HAL_RCCEx_PeriphCLKConfig+0x482>
10002404:	f105 0044 	add.w	r0, r5, #68	; 0x44
10002408:	f7ff f88a 	bl	10001520 <RCCEx_PLL3_Config>
1000240c:	4604      	mov	r4, r0
1000240e:	2800      	cmp	r0, #0
10002410:	f040 8124 	bne.w	1000265c <HAL_RCCEx_PeriphCLKConfig+0xdf0>
10002414:	f04f 42a0 	mov.w	r2, #1342177280	; 0x50000000
10002418:	f8d2 3880 	ldr.w	r3, [r2, #2176]	; 0x880
1000241c:	f043 0340 	orr.w	r3, r3, #64	; 0x40
10002420:	f8c2 3880 	str.w	r3, [r2, #2176]	; 0x880
10002424:	e479      	b.n	10001d1a <HAL_RCCEx_PeriphCLKConfig+0x4ae>
10002426:	bf00      	nop
10002428:	50001000 	.word	0x50001000
1000242c:	7fecfdc0 	.word	0x7fecfdc0
10002430:	f105 0080 	add.w	r0, r5, #128	; 0x80
10002434:	f7ff f94e 	bl	100016d4 <RCCEx_PLL4_Config>
10002438:	4604      	mov	r4, r0
1000243a:	2800      	cmp	r0, #0
1000243c:	f040 810e 	bne.w	1000265c <HAL_RCCEx_PeriphCLKConfig+0xdf0>
10002440:	f04f 42a0 	mov.w	r2, #1342177280	; 0x50000000
10002444:	f8d2 3894 	ldr.w	r3, [r2, #2196]	; 0x894
10002448:	f043 0310 	orr.w	r3, r3, #16
1000244c:	f8c2 3894 	str.w	r3, [r2, #2196]	; 0x894
10002450:	e463      	b.n	10001d1a <HAL_RCCEx_PeriphCLKConfig+0x4ae>
10002452:	f105 0080 	add.w	r0, r5, #128	; 0x80
10002456:	f7ff f93d 	bl	100016d4 <RCCEx_PLL4_Config>
1000245a:	4604      	mov	r4, r0
1000245c:	2800      	cmp	r0, #0
1000245e:	f040 80fd 	bne.w	1000265c <HAL_RCCEx_PeriphCLKConfig+0xdf0>
10002462:	f04f 42a0 	mov.w	r2, #1342177280	; 0x50000000
10002466:	f8d2 3894 	ldr.w	r3, [r2, #2196]	; 0x894
1000246a:	f043 0310 	orr.w	r3, r3, #16
1000246e:	f8c2 3894 	str.w	r3, [r2, #2196]	; 0x894
10002472:	e468      	b.n	10001d46 <HAL_RCCEx_PeriphCLKConfig+0x4da>
10002474:	f105 0044 	add.w	r0, r5, #68	; 0x44
10002478:	f7ff f852 	bl	10001520 <RCCEx_PLL3_Config>
1000247c:	4604      	mov	r4, r0
1000247e:	2800      	cmp	r0, #0
10002480:	f040 80ec 	bne.w	1000265c <HAL_RCCEx_PeriphCLKConfig+0xdf0>
10002484:	f04f 42a0 	mov.w	r2, #1342177280	; 0x50000000
10002488:	f8d2 3880 	ldr.w	r3, [r2, #2176]	; 0x880
1000248c:	f043 0320 	orr.w	r3, r3, #32
10002490:	f8c2 3880 	str.w	r3, [r2, #2176]	; 0x880
10002494:	e457      	b.n	10001d46 <HAL_RCCEx_PeriphCLKConfig+0x4da>
10002496:	f105 0044 	add.w	r0, r5, #68	; 0x44
1000249a:	f7ff f841 	bl	10001520 <RCCEx_PLL3_Config>
1000249e:	4604      	mov	r4, r0
100024a0:	2800      	cmp	r0, #0
100024a2:	f040 80db 	bne.w	1000265c <HAL_RCCEx_PeriphCLKConfig+0xdf0>
100024a6:	f04f 42a0 	mov.w	r2, #1342177280	; 0x50000000
100024aa:	f8d2 3880 	ldr.w	r3, [r2, #2176]	; 0x880
100024ae:	f043 0340 	orr.w	r3, r3, #64	; 0x40
100024b2:	f8c2 3880 	str.w	r3, [r2, #2176]	; 0x880
100024b6:	e45c      	b.n	10001d72 <HAL_RCCEx_PeriphCLKConfig+0x506>
100024b8:	f105 0080 	add.w	r0, r5, #128	; 0x80
100024bc:	f7ff f90a 	bl	100016d4 <RCCEx_PLL4_Config>
100024c0:	4604      	mov	r4, r0
100024c2:	2800      	cmp	r0, #0
100024c4:	f040 80ca 	bne.w	1000265c <HAL_RCCEx_PeriphCLKConfig+0xdf0>
100024c8:	f04f 42a0 	mov.w	r2, #1342177280	; 0x50000000
100024cc:	f8d2 3894 	ldr.w	r3, [r2, #2196]	; 0x894
100024d0:	f043 0310 	orr.w	r3, r3, #16
100024d4:	f8c2 3894 	str.w	r3, [r2, #2196]	; 0x894
100024d8:	e44b      	b.n	10001d72 <HAL_RCCEx_PeriphCLKConfig+0x506>
100024da:	f105 0044 	add.w	r0, r5, #68	; 0x44
100024de:	f7ff f81f 	bl	10001520 <RCCEx_PLL3_Config>
100024e2:	4604      	mov	r4, r0
100024e4:	2800      	cmp	r0, #0
100024e6:	f040 80b9 	bne.w	1000265c <HAL_RCCEx_PeriphCLKConfig+0xdf0>
100024ea:	f04f 42a0 	mov.w	r2, #1342177280	; 0x50000000
100024ee:	f8d2 3880 	ldr.w	r3, [r2, #2176]	; 0x880
100024f2:	f043 0340 	orr.w	r3, r3, #64	; 0x40
100024f6:	f8c2 3880 	str.w	r3, [r2, #2176]	; 0x880
100024fa:	e450      	b.n	10001d9e <HAL_RCCEx_PeriphCLKConfig+0x532>
100024fc:	f105 0080 	add.w	r0, r5, #128	; 0x80
10002500:	f7ff f8e8 	bl	100016d4 <RCCEx_PLL4_Config>
10002504:	4604      	mov	r4, r0
10002506:	2800      	cmp	r0, #0
10002508:	f040 80a8 	bne.w	1000265c <HAL_RCCEx_PeriphCLKConfig+0xdf0>
1000250c:	f04f 42a0 	mov.w	r2, #1342177280	; 0x50000000
10002510:	f8d2 3894 	ldr.w	r3, [r2, #2196]	; 0x894
10002514:	f043 0310 	orr.w	r3, r3, #16
10002518:	f8c2 3894 	str.w	r3, [r2, #2196]	; 0x894
1000251c:	e43f      	b.n	10001d9e <HAL_RCCEx_PeriphCLKConfig+0x532>
1000251e:	f105 0080 	add.w	r0, r5, #128	; 0x80
10002522:	f7ff f8d7 	bl	100016d4 <RCCEx_PLL4_Config>
10002526:	4604      	mov	r4, r0
10002528:	2800      	cmp	r0, #0
1000252a:	f040 8097 	bne.w	1000265c <HAL_RCCEx_PeriphCLKConfig+0xdf0>
1000252e:	f04f 42a0 	mov.w	r2, #1342177280	; 0x50000000
10002532:	f8d2 3894 	ldr.w	r3, [r2, #2196]	; 0x894
10002536:	f043 0320 	orr.w	r3, r3, #32
1000253a:	f8c2 3894 	str.w	r3, [r2, #2196]	; 0x894
1000253e:	e456      	b.n	10001dee <HAL_RCCEx_PeriphCLKConfig+0x582>
10002540:	f105 0080 	add.w	r0, r5, #128	; 0x80
10002544:	f7ff f8c6 	bl	100016d4 <RCCEx_PLL4_Config>
10002548:	4604      	mov	r4, r0
1000254a:	2800      	cmp	r0, #0
1000254c:	f040 8086 	bne.w	1000265c <HAL_RCCEx_PeriphCLKConfig+0xdf0>
10002550:	f04f 42a0 	mov.w	r2, #1342177280	; 0x50000000
10002554:	f8d2 3894 	ldr.w	r3, [r2, #2196]	; 0x894
10002558:	f043 0340 	orr.w	r3, r3, #64	; 0x40
1000255c:	e7ed      	b.n	1000253a <HAL_RCCEx_PeriphCLKConfig+0xcce>
1000255e:	f105 0080 	add.w	r0, r5, #128	; 0x80
10002562:	f7ff f8b7 	bl	100016d4 <RCCEx_PLL4_Config>
10002566:	4604      	mov	r4, r0
10002568:	2800      	cmp	r0, #0
1000256a:	d177      	bne.n	1000265c <HAL_RCCEx_PeriphCLKConfig+0xdf0>
1000256c:	f04f 42a0 	mov.w	r2, #1342177280	; 0x50000000
10002570:	f8d2 3894 	ldr.w	r3, [r2, #2196]	; 0x894
10002574:	f043 0310 	orr.w	r3, r3, #16
10002578:	f8c2 3894 	str.w	r3, [r2, #2196]	; 0x894
1000257c:	e44d      	b.n	10001e1a <HAL_RCCEx_PeriphCLKConfig+0x5ae>
1000257e:	f105 0044 	add.w	r0, r5, #68	; 0x44
10002582:	f7fe ffcd 	bl	10001520 <RCCEx_PLL3_Config>
10002586:	4604      	mov	r4, r0
10002588:	2800      	cmp	r0, #0
1000258a:	d167      	bne.n	1000265c <HAL_RCCEx_PeriphCLKConfig+0xdf0>
1000258c:	f04f 42a0 	mov.w	r2, #1342177280	; 0x50000000
10002590:	f8d2 3880 	ldr.w	r3, [r2, #2176]	; 0x880
10002594:	f043 0320 	orr.w	r3, r3, #32
10002598:	f8c2 3880 	str.w	r3, [r2, #2176]	; 0x880
1000259c:	e43d      	b.n	10001e1a <HAL_RCCEx_PeriphCLKConfig+0x5ae>
1000259e:	f105 0080 	add.w	r0, r5, #128	; 0x80
100025a2:	f7ff f897 	bl	100016d4 <RCCEx_PLL4_Config>
100025a6:	4604      	mov	r4, r0
100025a8:	2800      	cmp	r0, #0
100025aa:	d157      	bne.n	1000265c <HAL_RCCEx_PeriphCLKConfig+0xdf0>
100025ac:	f04f 42a0 	mov.w	r2, #1342177280	; 0x50000000
100025b0:	f8d2 3894 	ldr.w	r3, [r2, #2196]	; 0x894
100025b4:	f043 0340 	orr.w	r3, r3, #64	; 0x40
100025b8:	f8c2 3894 	str.w	r3, [r2, #2196]	; 0x894
100025bc:	e507      	b.n	10001fce <HAL_RCCEx_PeriphCLKConfig+0x762>
100025be:	f105 0044 	add.w	r0, r5, #68	; 0x44
100025c2:	f7fe ffad 	bl	10001520 <RCCEx_PLL3_Config>
100025c6:	4604      	mov	r4, r0
100025c8:	2800      	cmp	r0, #0
100025ca:	d147      	bne.n	1000265c <HAL_RCCEx_PeriphCLKConfig+0xdf0>
100025cc:	f04f 42a0 	mov.w	r2, #1342177280	; 0x50000000
100025d0:	f8d2 3880 	ldr.w	r3, [r2, #2176]	; 0x880
100025d4:	f043 0320 	orr.w	r3, r3, #32
100025d8:	f8c2 3880 	str.w	r3, [r2, #2176]	; 0x880
100025dc:	e4f7      	b.n	10001fce <HAL_RCCEx_PeriphCLKConfig+0x762>
100025de:	f105 0080 	add.w	r0, r5, #128	; 0x80
100025e2:	f7ff f877 	bl	100016d4 <RCCEx_PLL4_Config>
100025e6:	4604      	mov	r4, r0
100025e8:	bbc0      	cbnz	r0, 1000265c <HAL_RCCEx_PeriphCLKConfig+0xdf0>
100025ea:	f04f 42a0 	mov.w	r2, #1342177280	; 0x50000000
100025ee:	f8d2 3894 	ldr.w	r3, [r2, #2196]	; 0x894
100025f2:	f043 0310 	orr.w	r3, r3, #16
100025f6:	f8c2 3894 	str.w	r3, [r2, #2196]	; 0x894
100025fa:	e50d      	b.n	10002018 <HAL_RCCEx_PeriphCLKConfig+0x7ac>
100025fc:	f105 0080 	add.w	r0, r5, #128	; 0x80
10002600:	f7ff f868 	bl	100016d4 <RCCEx_PLL4_Config>
10002604:	4604      	mov	r4, r0
10002606:	bb48      	cbnz	r0, 1000265c <HAL_RCCEx_PeriphCLKConfig+0xdf0>
10002608:	f04f 42a0 	mov.w	r2, #1342177280	; 0x50000000
1000260c:	f8d2 3894 	ldr.w	r3, [r2, #2196]	; 0x894
10002610:	f043 0310 	orr.w	r3, r3, #16
10002614:	f8c2 3894 	str.w	r3, [r2, #2196]	; 0x894
10002618:	e545      	b.n	100020a6 <HAL_RCCEx_PeriphCLKConfig+0x83a>
1000261a:	f7fd ff5d 	bl	100004d8 <HAL_GetTick>
1000261e:	1bc0      	subs	r0, r0, r7
10002620:	2865      	cmp	r0, #101	; 0x65
10002622:	bf28      	it	cs
10002624:	2403      	movcs	r4, #3
10002626:	e555      	b.n	100020d4 <HAL_RCCEx_PeriphCLKConfig+0x868>
10002628:	f04f 44a0 	mov.w	r4, #1342177280	; 0x50000000
1000262c:	f8d5 214c 	ldr.w	r2, [r5, #332]	; 0x14c
10002630:	f8d4 3828 	ldr.w	r3, [r4, #2088]	; 0x828
10002634:	f023 0301 	bic.w	r3, r3, #1
10002638:	4313      	orrs	r3, r2
1000263a:	f8c4 3828 	str.w	r3, [r4, #2088]	; 0x828
1000263e:	f7fd ff4b 	bl	100004d8 <HAL_GetTick>
10002642:	4606      	mov	r6, r0
10002644:	f8d4 3828 	ldr.w	r3, [r4, #2088]	; 0x828
10002648:	2b00      	cmp	r3, #0
1000264a:	f6ff ad97 	blt.w	1000217c <HAL_RCCEx_PeriphCLKConfig+0x910>
1000264e:	f7fd ff43 	bl	100004d8 <HAL_GetTick>
10002652:	1b80      	subs	r0, r0, r6
10002654:	f5b0 7f7a 	cmp.w	r0, #1000	; 0x3e8
10002658:	d9f4      	bls.n	10002644 <HAL_RCCEx_PeriphCLKConfig+0xdd8>
1000265a:	2403      	movs	r4, #3
1000265c:	4620      	mov	r0, r4
1000265e:	b047      	add	sp, #284	; 0x11c
10002660:	bdf0      	pop	{r4, r5, r6, r7, pc}
10002662:	f7fd ff39 	bl	100004d8 <HAL_GetTick>
10002666:	1b40      	subs	r0, r0, r5
10002668:	f5b0 7f7a 	cmp.w	r0, #1000	; 0x3e8
1000266c:	f67f ad97 	bls.w	1000219e <HAL_RCCEx_PeriphCLKConfig+0x932>
10002670:	e7f3      	b.n	1000265a <HAL_RCCEx_PeriphCLKConfig+0xdee>
10002672:	bf00      	nop

10002674 <metal_generic_dev_open>:
10002674:	e92d 41f0 	stmdb	sp!, {r4, r5, r6, r7, r8, lr}
10002678:	4d0d      	ldr	r5, [pc, #52]	; (100026b0 <metal_generic_dev_open+0x3c>)
1000267a:	f855 4f18 	ldr.w	r4, [r5, #24]!
1000267e:	4688      	mov	r8, r1
10002680:	4616      	mov	r6, r2
10002682:	42ac      	cmp	r4, r5
10002684:	d103      	bne.n	1000268e <metal_generic_dev_open+0x1a>
10002686:	f06f 0012 	mvn.w	r0, #18
1000268a:	e8bd 81f0 	ldmia.w	sp!, {r4, r5, r6, r7, r8, pc}
1000268e:	f854 0c7c 	ldr.w	r0, [r4, #-124]
10002692:	4641      	mov	r1, r8
10002694:	f1a4 077c 	sub.w	r7, r4, #124	; 0x7c
10002698:	f7fd fcd2 	bl	10000040 <strcmp>
1000269c:	b928      	cbnz	r0, 100026aa <metal_generic_dev_open+0x36>
1000269e:	6037      	str	r7, [r6, #0]
100026a0:	4638      	mov	r0, r7
100026a2:	e8bd 41f0 	ldmia.w	sp!, {r4, r5, r6, r7, r8, lr}
100026a6:	f000 b8bd 	b.w	10002824 <metal_generic_dev_sys_open>
100026aa:	6824      	ldr	r4, [r4, #0]
100026ac:	e7e9      	b.n	10002682 <metal_generic_dev_open+0xe>
100026ae:	bf00      	nop
100026b0:	10020214 	.word	0x10020214

100026b4 <metal_generic_dev_dma_map>:
100026b4:	b5f8      	push	{r3, r4, r5, r6, r7, lr}
100026b6:	e9dd 5406 	ldrd	r5, r4, [sp, #24]
100026ba:	429c      	cmp	r4, r3
100026bc:	4617      	mov	r7, r2
100026be:	4619      	mov	r1, r3
100026c0:	d004      	beq.n	100026cc <metal_generic_dev_dma_map+0x18>
100026c2:	220c      	movs	r2, #12
100026c4:	436a      	muls	r2, r5
100026c6:	4620      	mov	r0, r4
100026c8:	f001 f840 	bl	1000374c <memcpy>
100026cc:	2600      	movs	r6, #0
100026ce:	42ae      	cmp	r6, r5
100026d0:	db01      	blt.n	100026d6 <metal_generic_dev_dma_map+0x22>
100026d2:	4628      	mov	r0, r5
100026d4:	bdf8      	pop	{r3, r4, r5, r6, r7, pc}
100026d6:	2f02      	cmp	r7, #2
100026d8:	d103      	bne.n	100026e2 <metal_generic_dev_dma_map+0x2e>
100026da:	68a1      	ldr	r1, [r4, #8]
100026dc:	6820      	ldr	r0, [r4, #0]
100026de:	f000 fd9b 	bl	10003218 <metal_machine_cache_flush>
100026e2:	68a1      	ldr	r1, [r4, #8]
100026e4:	f854 0b0c 	ldr.w	r0, [r4], #12
100026e8:	f000 fd97 	bl	1000321a <metal_machine_cache_invalidate>
100026ec:	3601      	adds	r6, #1
100026ee:	e7ee      	b.n	100026ce <metal_generic_dev_dma_map+0x1a>

100026f0 <metal_generic_dev_dma_unmap>:
100026f0:	b570      	push	{r4, r5, r6, lr}
100026f2:	9e04      	ldr	r6, [sp, #16]
100026f4:	461c      	mov	r4, r3
100026f6:	2500      	movs	r5, #0
100026f8:	42b5      	cmp	r5, r6
100026fa:	f104 040c 	add.w	r4, r4, #12
100026fe:	db00      	blt.n	10002702 <metal_generic_dev_dma_unmap+0x12>
10002700:	bd70      	pop	{r4, r5, r6, pc}
10002702:	f854 1c04 	ldr.w	r1, [r4, #-4]
10002706:	f854 0c0c 	ldr.w	r0, [r4, #-12]
1000270a:	f000 fd86 	bl	1000321a <metal_machine_cache_invalidate>
1000270e:	3501      	adds	r5, #1
10002710:	e7f2      	b.n	100026f8 <metal_generic_dev_dma_unmap+0x8>
	...

10002714 <metal_bus_find>:
10002714:	e92d 41f0 	stmdb	sp!, {r4, r5, r6, r7, r8, lr}
10002718:	4e0c      	ldr	r6, [pc, #48]	; (1000274c <metal_bus_find+0x38>)
1000271a:	f856 4f08 	ldr.w	r4, [r6, #8]!
1000271e:	4607      	mov	r7, r0
10002720:	460d      	mov	r5, r1
10002722:	42b4      	cmp	r4, r6
10002724:	d102      	bne.n	1000272c <metal_bus_find+0x18>
10002726:	f06f 0001 	mvn.w	r0, #1
1000272a:	e00a      	b.n	10002742 <metal_bus_find+0x2e>
1000272c:	f854 0c24 	ldr.w	r0, [r4, #-36]
10002730:	4639      	mov	r1, r7
10002732:	f1a4 0824 	sub.w	r8, r4, #36	; 0x24
10002736:	f7fd fc83 	bl	10000040 <strcmp>
1000273a:	b920      	cbnz	r0, 10002746 <metal_bus_find+0x32>
1000273c:	b11d      	cbz	r5, 10002746 <metal_bus_find+0x32>
1000273e:	f8c5 8000 	str.w	r8, [r5]
10002742:	e8bd 81f0 	ldmia.w	sp!, {r4, r5, r6, r7, r8, pc}
10002746:	6824      	ldr	r4, [r4, #0]
10002748:	e7eb      	b.n	10002722 <metal_bus_find+0xe>
1000274a:	bf00      	nop
1000274c:	10020214 	.word	0x10020214

10002750 <metal_bus_register>:
10002750:	b510      	push	{r4, lr}
10002752:	4604      	mov	r4, r0
10002754:	b300      	cbz	r0, 10002798 <metal_bus_register+0x48>
10002756:	6800      	ldr	r0, [r0, #0]
10002758:	b1f0      	cbz	r0, 10002798 <metal_bus_register+0x48>
1000275a:	7803      	ldrb	r3, [r0, #0]
1000275c:	b1e3      	cbz	r3, 10002798 <metal_bus_register+0x48>
1000275e:	2100      	movs	r1, #0
10002760:	f7ff ffd8 	bl	10002714 <metal_bus_find>
10002764:	b1d8      	cbz	r0, 1000279e <metal_bus_register+0x4e>
10002766:	f104 031c 	add.w	r3, r4, #28
1000276a:	e9c4 3307 	strd	r3, r3, [r4, #28]
1000276e:	4b0e      	ldr	r3, [pc, #56]	; (100027a8 <metal_bus_register+0x58>)
10002770:	68d9      	ldr	r1, [r3, #12]
10002772:	62a1      	str	r1, [r4, #40]	; 0x28
10002774:	f104 0224 	add.w	r2, r4, #36	; 0x24
10002778:	f103 0008 	add.w	r0, r3, #8
1000277c:	60da      	str	r2, [r3, #12]
1000277e:	6260      	str	r0, [r4, #36]	; 0x24
10002780:	600a      	str	r2, [r1, #0]
10002782:	781a      	ldrb	r2, [r3, #0]
10002784:	2a06      	cmp	r2, #6
10002786:	d905      	bls.n	10002794 <metal_bus_register+0x44>
10002788:	685b      	ldr	r3, [r3, #4]
1000278a:	b15b      	cbz	r3, 100027a4 <metal_bus_register+0x54>
1000278c:	6822      	ldr	r2, [r4, #0]
1000278e:	4907      	ldr	r1, [pc, #28]	; (100027ac <metal_bus_register+0x5c>)
10002790:	2007      	movs	r0, #7
10002792:	4798      	blx	r3
10002794:	2000      	movs	r0, #0
10002796:	e001      	b.n	1000279c <metal_bus_register+0x4c>
10002798:	f06f 0015 	mvn.w	r0, #21
1000279c:	bd10      	pop	{r4, pc}
1000279e:	f06f 0010 	mvn.w	r0, #16
100027a2:	e7fb      	b.n	1000279c <metal_bus_register+0x4c>
100027a4:	4618      	mov	r0, r3
100027a6:	e7f9      	b.n	1000279c <metal_bus_register+0x4c>
100027a8:	10020214 	.word	0x10020214
100027ac:	100047bc 	.word	0x100047bc

100027b0 <metal_device_open>:
100027b0:	b537      	push	{r0, r1, r2, r4, r5, lr}
100027b2:	460c      	mov	r4, r1
100027b4:	4615      	mov	r5, r2
100027b6:	b188      	cbz	r0, 100027dc <metal_device_open+0x2c>
100027b8:	7803      	ldrb	r3, [r0, #0]
100027ba:	b17b      	cbz	r3, 100027dc <metal_device_open+0x2c>
100027bc:	b171      	cbz	r1, 100027dc <metal_device_open+0x2c>
100027be:	780b      	ldrb	r3, [r1, #0]
100027c0:	b163      	cbz	r3, 100027dc <metal_device_open+0x2c>
100027c2:	b15a      	cbz	r2, 100027dc <metal_device_open+0x2c>
100027c4:	a901      	add	r1, sp, #4
100027c6:	f7ff ffa5 	bl	10002714 <metal_bus_find>
100027ca:	b928      	cbnz	r0, 100027d8 <metal_device_open+0x28>
100027cc:	9801      	ldr	r0, [sp, #4]
100027ce:	6883      	ldr	r3, [r0, #8]
100027d0:	b13b      	cbz	r3, 100027e2 <metal_device_open+0x32>
100027d2:	462a      	mov	r2, r5
100027d4:	4621      	mov	r1, r4
100027d6:	4798      	blx	r3
100027d8:	b003      	add	sp, #12
100027da:	bd30      	pop	{r4, r5, pc}
100027dc:	f06f 0015 	mvn.w	r0, #21
100027e0:	e7fa      	b.n	100027d8 <metal_device_open+0x28>
100027e2:	f06f 0012 	mvn.w	r0, #18
100027e6:	e7f7      	b.n	100027d8 <metal_device_open+0x28>

100027e8 <metal_register_generic_device>:
100027e8:	6803      	ldr	r3, [r0, #0]
100027ea:	b510      	push	{r4, lr}
100027ec:	b19b      	cbz	r3, 10002816 <metal_register_generic_device+0x2e>
100027ee:	781b      	ldrb	r3, [r3, #0]
100027f0:	b18b      	cbz	r3, 10002816 <metal_register_generic_device+0x2e>
100027f2:	6883      	ldr	r3, [r0, #8]
100027f4:	2b02      	cmp	r3, #2
100027f6:	d80e      	bhi.n	10002816 <metal_register_generic_device+0x2e>
100027f8:	4b08      	ldr	r3, [pc, #32]	; (1000281c <metal_register_generic_device+0x34>)
100027fa:	6043      	str	r3, [r0, #4]
100027fc:	4b08      	ldr	r3, [pc, #32]	; (10002820 <metal_register_generic_device+0x38>)
100027fe:	69da      	ldr	r2, [r3, #28]
10002800:	f8c0 2080 	str.w	r2, [r0, #128]	; 0x80
10002804:	f100 017c 	add.w	r1, r0, #124	; 0x7c
10002808:	f103 0418 	add.w	r4, r3, #24
1000280c:	67c4      	str	r4, [r0, #124]	; 0x7c
1000280e:	61d9      	str	r1, [r3, #28]
10002810:	2000      	movs	r0, #0
10002812:	6011      	str	r1, [r2, #0]
10002814:	bd10      	pop	{r4, pc}
10002816:	f06f 0015 	mvn.w	r0, #21
1000281a:	e7fb      	b.n	10002814 <metal_register_generic_device+0x2c>
1000281c:	1002000c 	.word	0x1002000c
10002820:	10020214 	.word	0x10020214

10002824 <metal_generic_dev_sys_open>:
10002824:	b570      	push	{r4, r5, r6, lr}
10002826:	4604      	mov	r4, r0
10002828:	f100 050c 	add.w	r5, r0, #12
1000282c:	2600      	movs	r6, #0
1000282e:	68a3      	ldr	r3, [r4, #8]
10002830:	42b3      	cmp	r3, r6
10002832:	d801      	bhi.n	10002838 <metal_generic_dev_sys_open+0x14>
10002834:	2000      	movs	r0, #0
10002836:	bd70      	pop	{r4, r5, r6, pc}
10002838:	4628      	mov	r0, r5
1000283a:	68ab      	ldr	r3, [r5, #8]
1000283c:	3538      	adds	r5, #56	; 0x38
1000283e:	2b00      	cmp	r3, #0
10002840:	d0f8      	beq.n	10002834 <metal_generic_dev_sys_open+0x10>
10002842:	f000 f80b 	bl	1000285c <metal_sys_io_mem_map>
10002846:	3601      	adds	r6, #1
10002848:	e7f1      	b.n	1000282e <metal_generic_dev_sys_open+0xa>
	...

1000284c <metal_sys_init>:
1000284c:	b508      	push	{r3, lr}
1000284e:	4802      	ldr	r0, [pc, #8]	; (10002858 <metal_sys_init+0xc>)
10002850:	f7ff ff7e 	bl	10002750 <metal_bus_register>
10002854:	2000      	movs	r0, #0
10002856:	bd08      	pop	{r3, pc}
10002858:	1002000c 	.word	0x1002000c

1000285c <metal_sys_io_mem_map>:
1000285c:	e92d 41f0 	stmdb	sp!, {r4, r5, r6, r7, r8, lr}
10002860:	6885      	ldr	r5, [r0, #8]
10002862:	4604      	mov	r4, r0
10002864:	b1c5      	cbz	r5, 10002898 <metal_sys_io_mem_map+0x3c>
10002866:	68c3      	ldr	r3, [r0, #12]
10002868:	6807      	ldr	r7, [r0, #0]
1000286a:	fa35 f203 	lsrs.w	r2, r5, r3
1000286e:	bf1c      	itt	ne
10002870:	2501      	movne	r5, #1
10002872:	409d      	lslne	r5, r3
10002874:	ea4f 0885 	mov.w	r8, r5, lsl #2
10002878:	2600      	movs	r6, #0
1000287a:	6861      	ldr	r1, [r4, #4]
1000287c:	6963      	ldr	r3, [r4, #20]
1000287e:	f851 1026 	ldr.w	r1, [r1, r6, lsl #2]
10002882:	462a      	mov	r2, r5
10002884:	4638      	mov	r0, r7
10002886:	f000 fcc9 	bl	1000321c <metal_machine_io_mem_map>
1000288a:	e9d4 3202 	ldrd	r3, r2, [r4, #8]
1000288e:	3601      	adds	r6, #1
10002890:	40d3      	lsrs	r3, r2
10002892:	42b3      	cmp	r3, r6
10002894:	4447      	add	r7, r8
10002896:	d2f0      	bcs.n	1000287a <metal_sys_io_mem_map+0x1e>
10002898:	e8bd 81f0 	ldmia.w	sp!, {r4, r5, r6, r7, r8, pc}

1000289c <metal_init>:
1000289c:	4b0e      	ldr	r3, [pc, #56]	; (100028d8 <metal_init+0x3c>)
1000289e:	b510      	push	{r4, lr}
100028a0:	2220      	movs	r2, #32
100028a2:	4604      	mov	r4, r0
100028a4:	2100      	movs	r1, #0
100028a6:	4618      	mov	r0, r3
100028a8:	f000 ff5e 	bl	10003768 <memset>
100028ac:	6822      	ldr	r2, [r4, #0]
100028ae:	6042      	str	r2, [r0, #4]
100028b0:	4602      	mov	r2, r0
100028b2:	7921      	ldrb	r1, [r4, #4]
100028b4:	f802 1b08 	strb.w	r1, [r2], #8
100028b8:	e9c0 2202 	strd	r2, r2, [r0, #8]
100028bc:	f100 0210 	add.w	r2, r0, #16
100028c0:	e9c0 2204 	strd	r2, r2, [r0, #16]
100028c4:	f100 0218 	add.w	r2, r0, #24
100028c8:	e9c0 2206 	strd	r2, r2, [r0, #24]
100028cc:	4620      	mov	r0, r4
100028ce:	e8bd 4010 	ldmia.w	sp!, {r4, lr}
100028d2:	f7ff bfbb 	b.w	1000284c <metal_sys_init>
100028d6:	bf00      	nop
100028d8:	10020214 	.word	0x10020214

100028dc <metal_io_init>:
100028dc:	e92d 47f0 	stmdb	sp!, {r4, r5, r6, r7, r8, r9, sl, lr}
100028e0:	b088      	sub	sp, #32
100028e2:	e9dd 4910 	ldrd	r4, r9, [sp, #64]	; 0x40
100028e6:	4606      	mov	r6, r0
100028e8:	468a      	mov	sl, r1
100028ea:	4690      	mov	r8, r2
100028ec:	2100      	movs	r1, #0
100028ee:	2220      	movs	r2, #32
100028f0:	4668      	mov	r0, sp
100028f2:	461f      	mov	r7, r3
100028f4:	9d12      	ldr	r5, [sp, #72]	; 0x48
100028f6:	f000 ff37 	bl	10003768 <memset>
100028fa:	2c1f      	cmp	r4, #31
100028fc:	bf9d      	ittte	ls
100028fe:	2301      	movls	r3, #1
10002900:	40a3      	lslls	r3, r4
10002902:	f103 33ff 	addls.w	r3, r3, #4294967295
10002906:	f04f 33ff 	movhi.w	r3, #4294967295
1000290a:	e9c6 7402 	strd	r7, r4, [r6, #8]
1000290e:	e9c6 a800 	strd	sl, r8, [r6]
10002912:	e9c6 3904 	strd	r3, r9, [r6, #16]
10002916:	f106 0418 	add.w	r4, r6, #24
1000291a:	b15d      	cbz	r5, 10002934 <metal_io_init+0x58>
1000291c:	cd0f      	ldmia	r5!, {r0, r1, r2, r3}
1000291e:	c40f      	stmia	r4!, {r0, r1, r2, r3}
10002920:	e895 000f 	ldmia.w	r5, {r0, r1, r2, r3}
10002924:	e884 000f 	stmia.w	r4, {r0, r1, r2, r3}
10002928:	4630      	mov	r0, r6
1000292a:	b008      	add	sp, #32
1000292c:	e8bd 47f0 	ldmia.w	sp!, {r4, r5, r6, r7, r8, r9, sl, lr}
10002930:	f7ff bf94 	b.w	1000285c <metal_sys_io_mem_map>
10002934:	466d      	mov	r5, sp
10002936:	e7f1      	b.n	1000291c <metal_io_init+0x40>

10002938 <metal_io_block_read>:
10002938:	b573      	push	{r0, r1, r4, r5, r6, lr}
1000293a:	6804      	ldr	r4, [r0, #0]
1000293c:	1c66      	adds	r6, r4, #1
1000293e:	d033      	beq.n	100029a8 <metal_io_block_read+0x70>
10002940:	6885      	ldr	r5, [r0, #8]
10002942:	42a9      	cmp	r1, r5
10002944:	d230      	bcs.n	100029a8 <metal_io_block_read+0x70>
10002946:	1864      	adds	r4, r4, r1
10002948:	d02e      	beq.n	100029a8 <metal_io_block_read+0x70>
1000294a:	185e      	adds	r6, r3, r1
1000294c:	42ae      	cmp	r6, r5
1000294e:	bf88      	it	hi
10002950:	1a6b      	subhi	r3, r5, r1
10002952:	6a05      	ldr	r5, [r0, #32]
10002954:	b135      	cbz	r5, 10002964 <metal_io_block_read+0x2c>
10002956:	9300      	str	r3, [sp, #0]
10002958:	2305      	movs	r3, #5
1000295a:	47a8      	blx	r5
1000295c:	4603      	mov	r3, r0
1000295e:	4618      	mov	r0, r3
10002960:	b002      	add	sp, #8
10002962:	bd70      	pop	{r4, r5, r6, pc}
10002964:	4621      	mov	r1, r4
10002966:	4618      	mov	r0, r3
10002968:	f3bf 8f5b 	dmb	ish
1000296c:	2800      	cmp	r0, #0
1000296e:	d0f6      	beq.n	1000295e <metal_io_block_read+0x26>
10002970:	ea42 0501 	orr.w	r5, r2, r1
10002974:	07ad      	lsls	r5, r5, #30
10002976:	460c      	mov	r4, r1
10002978:	d10a      	bne.n	10002990 <metal_io_block_read+0x58>
1000297a:	2803      	cmp	r0, #3
1000297c:	dc0e      	bgt.n	1000299c <metal_io_block_read+0x64>
1000297e:	3c01      	subs	r4, #1
10002980:	4410      	add	r0, r2
10002982:	4282      	cmp	r2, r0
10002984:	d0eb      	beq.n	1000295e <metal_io_block_read+0x26>
10002986:	f814 1f01 	ldrb.w	r1, [r4, #1]!
1000298a:	f802 1b01 	strb.w	r1, [r2], #1
1000298e:	e7f8      	b.n	10002982 <metal_io_block_read+0x4a>
10002990:	f811 4b01 	ldrb.w	r4, [r1], #1
10002994:	f802 4b01 	strb.w	r4, [r2], #1
10002998:	3801      	subs	r0, #1
1000299a:	e7e7      	b.n	1000296c <metal_io_block_read+0x34>
1000299c:	f854 1b04 	ldr.w	r1, [r4], #4
100029a0:	f842 1b04 	str.w	r1, [r2], #4
100029a4:	3804      	subs	r0, #4
100029a6:	e7e8      	b.n	1000297a <metal_io_block_read+0x42>
100029a8:	f06f 0321 	mvn.w	r3, #33	; 0x21
100029ac:	e7d7      	b.n	1000295e <metal_io_block_read+0x26>

100029ae <metal_io_block_write>:
100029ae:	b573      	push	{r0, r1, r4, r5, r6, lr}
100029b0:	6804      	ldr	r4, [r0, #0]
100029b2:	1c66      	adds	r6, r4, #1
100029b4:	d032      	beq.n	10002a1c <metal_io_block_write+0x6e>
100029b6:	6885      	ldr	r5, [r0, #8]
100029b8:	42a9      	cmp	r1, r5
100029ba:	d22f      	bcs.n	10002a1c <metal_io_block_write+0x6e>
100029bc:	1864      	adds	r4, r4, r1
100029be:	d02d      	beq.n	10002a1c <metal_io_block_write+0x6e>
100029c0:	185e      	adds	r6, r3, r1
100029c2:	42ae      	cmp	r6, r5
100029c4:	bf88      	it	hi
100029c6:	1a6b      	subhi	r3, r5, r1
100029c8:	6a45      	ldr	r5, [r0, #36]	; 0x24
100029ca:	b935      	cbnz	r5, 100029da <metal_io_block_write+0x2c>
100029cc:	4621      	mov	r1, r4
100029ce:	4618      	mov	r0, r3
100029d0:	b970      	cbnz	r0, 100029f0 <metal_io_block_write+0x42>
100029d2:	4618      	mov	r0, r3
100029d4:	f3bf 8f5b 	dmb	ish
100029d8:	e002      	b.n	100029e0 <metal_io_block_write+0x32>
100029da:	9300      	str	r3, [sp, #0]
100029dc:	2305      	movs	r3, #5
100029de:	47a8      	blx	r5
100029e0:	b002      	add	sp, #8
100029e2:	bd70      	pop	{r4, r5, r6, pc}
100029e4:	f812 4b01 	ldrb.w	r4, [r2], #1
100029e8:	f801 4b01 	strb.w	r4, [r1], #1
100029ec:	3801      	subs	r0, #1
100029ee:	e7ef      	b.n	100029d0 <metal_io_block_write+0x22>
100029f0:	ea41 0502 	orr.w	r5, r1, r2
100029f4:	07ad      	lsls	r5, r5, #30
100029f6:	4614      	mov	r4, r2
100029f8:	d1f4      	bne.n	100029e4 <metal_io_block_write+0x36>
100029fa:	2803      	cmp	r0, #3
100029fc:	dc08      	bgt.n	10002a10 <metal_io_block_write+0x62>
100029fe:	3c01      	subs	r4, #1
10002a00:	4408      	add	r0, r1
10002a02:	4281      	cmp	r1, r0
10002a04:	d0e5      	beq.n	100029d2 <metal_io_block_write+0x24>
10002a06:	f814 2f01 	ldrb.w	r2, [r4, #1]!
10002a0a:	f801 2b01 	strb.w	r2, [r1], #1
10002a0e:	e7f8      	b.n	10002a02 <metal_io_block_write+0x54>
10002a10:	f854 2b04 	ldr.w	r2, [r4], #4
10002a14:	f841 2b04 	str.w	r2, [r1], #4
10002a18:	3804      	subs	r0, #4
10002a1a:	e7ee      	b.n	100029fa <metal_io_block_write+0x4c>
10002a1c:	f06f 0021 	mvn.w	r0, #33	; 0x21
10002a20:	e7de      	b.n	100029e0 <metal_io_block_write+0x32>

10002a22 <metal_default_log_handler>:
10002a22:	b40e      	push	{r1, r2, r3}
10002a24:	b003      	add	sp, #12
10002a26:	4770      	bx	lr

10002a28 <rproc_virtio_read_config>:
10002a28:	b4f0      	push	{r4, r5, r6, r7}
10002a2a:	f850 4c0c 	ldr.w	r4, [r0, #-12]
10002a2e:	6967      	ldr	r7, [r4, #20]
10002a30:	185d      	adds	r5, r3, r1
10002a32:	42bd      	cmp	r5, r7
10002a34:	d812      	bhi.n	10002a5c <rproc_virtio_read_config+0x34>
10002a36:	f850 5c08 	ldr.w	r5, [r0, #-8]
10002a3a:	6a80      	ldr	r0, [r0, #40]	; 0x28
10002a3c:	2614      	movs	r6, #20
10002a3e:	fb06 1100 	mla	r1, r6, r0, r1
10002a42:	311c      	adds	r1, #28
10002a44:	4421      	add	r1, r4
10002a46:	682c      	ldr	r4, [r5, #0]
10002a48:	68a8      	ldr	r0, [r5, #8]
10002a4a:	1b09      	subs	r1, r1, r4
10002a4c:	4281      	cmp	r1, r0
10002a4e:	bf28      	it	cs
10002a50:	f04f 31ff 	movcs.w	r1, #4294967295
10002a54:	4628      	mov	r0, r5
10002a56:	bcf0      	pop	{r4, r5, r6, r7}
10002a58:	f7ff bf6e 	b.w	10002938 <metal_io_block_read>
10002a5c:	bcf0      	pop	{r4, r5, r6, r7}
10002a5e:	4770      	bx	lr

10002a60 <rproc_virtio_virtqueue_notify>:
10002a60:	6803      	ldr	r3, [r0, #0]
10002a62:	8901      	ldrh	r1, [r0, #8]
10002a64:	6a9a      	ldr	r2, [r3, #40]	; 0x28
10002a66:	428a      	cmp	r2, r1
10002a68:	b510      	push	{r4, lr}
10002a6a:	f1a3 0010 	sub.w	r0, r3, #16
10002a6e:	d805      	bhi.n	10002a7c <rproc_virtio_virtqueue_notify+0x1c>
10002a70:	4b08      	ldr	r3, [pc, #32]	; (10002a94 <rproc_virtio_virtqueue_notify+0x34>)
10002a72:	4a09      	ldr	r2, [pc, #36]	; (10002a98 <rproc_virtio_virtqueue_notify+0x38>)
10002a74:	4809      	ldr	r0, [pc, #36]	; (10002a9c <rproc_virtio_virtqueue_notify+0x3c>)
10002a76:	211c      	movs	r1, #28
10002a78:	f000 fdfe 	bl	10003678 <__assert_func>
10002a7c:	6ada      	ldr	r2, [r3, #44]	; 0x2c
10002a7e:	2418      	movs	r4, #24
10002a80:	fb04 2201 	mla	r2, r4, r1, r2
10002a84:	68c4      	ldr	r4, [r0, #12]
10002a86:	6911      	ldr	r1, [r2, #16]
10002a88:	f853 0c10 	ldr.w	r0, [r3, #-16]
10002a8c:	4623      	mov	r3, r4
10002a8e:	e8bd 4010 	ldmia.w	sp!, {r4, lr}
10002a92:	4718      	bx	r3
10002a94:	100047d7 	.word	0x100047d7
10002a98:	100048c3 	.word	0x100048c3
10002a9c:	100047f0 	.word	0x100047f0

10002aa0 <metal_io_read.constprop.0>:
10002aa0:	b570      	push	{r4, r5, r6, lr}
10002aa2:	6804      	ldr	r4, [r0, #0]
10002aa4:	4613      	mov	r3, r2
10002aa6:	1c62      	adds	r2, r4, #1
10002aa8:	d00a      	beq.n	10002ac0 <metal_io_read.constprop.0+0x20>
10002aaa:	6882      	ldr	r2, [r0, #8]
10002aac:	4291      	cmp	r1, r2
10002aae:	d207      	bcs.n	10002ac0 <metal_io_read.constprop.0+0x20>
10002ab0:	440c      	add	r4, r1
10002ab2:	6985      	ldr	r5, [r0, #24]
10002ab4:	b135      	cbz	r5, 10002ac4 <metal_io_read.constprop.0+0x24>
10002ab6:	46ac      	mov	ip, r5
10002ab8:	2205      	movs	r2, #5
10002aba:	e8bd 4070 	ldmia.w	sp!, {r4, r5, r6, lr}
10002abe:	4760      	bx	ip
10002ac0:	2400      	movs	r4, #0
10002ac2:	e7f6      	b.n	10002ab2 <metal_io_read.constprop.0+0x12>
10002ac4:	b18c      	cbz	r4, 10002aea <metal_io_read.constprop.0+0x4a>
10002ac6:	2b01      	cmp	r3, #1
10002ac8:	d107      	bne.n	10002ada <metal_io_read.constprop.0+0x3a>
10002aca:	f3bf 8f5b 	dmb	ish
10002ace:	7820      	ldrb	r0, [r4, #0]
10002ad0:	f3bf 8f5b 	dmb	ish
10002ad4:	b2c0      	uxtb	r0, r0
10002ad6:	2100      	movs	r1, #0
10002ad8:	bd70      	pop	{r4, r5, r6, pc}
10002ada:	2b04      	cmp	r3, #4
10002adc:	d105      	bne.n	10002aea <metal_io_read.constprop.0+0x4a>
10002ade:	f3bf 8f5b 	dmb	ish
10002ae2:	6820      	ldr	r0, [r4, #0]
10002ae4:	f3bf 8f5b 	dmb	ish
10002ae8:	e7f5      	b.n	10002ad6 <metal_io_read.constprop.0+0x36>
10002aea:	4b03      	ldr	r3, [pc, #12]	; (10002af8 <metal_io_read.constprop.0+0x58>)
10002aec:	4a03      	ldr	r2, [pc, #12]	; (10002afc <metal_io_read.constprop.0+0x5c>)
10002aee:	4804      	ldr	r0, [pc, #16]	; (10002b00 <metal_io_read.constprop.0+0x60>)
10002af0:	21fe      	movs	r1, #254	; 0xfe
10002af2:	f000 fdc1 	bl	10003678 <__assert_func>
10002af6:	bf00      	nop
10002af8:	100049a0 	.word	0x100049a0
10002afc:	100048b5 	.word	0x100048b5
10002b00:	1000486f 	.word	0x1000486f

10002b04 <rproc_virtio_get_status>:
10002b04:	b508      	push	{r3, lr}
10002b06:	f1a0 0310 	sub.w	r3, r0, #16
10002b0a:	f850 0c08 	ldr.w	r0, [r0, #-8]
10002b0e:	6859      	ldr	r1, [r3, #4]
10002b10:	6803      	ldr	r3, [r0, #0]
10002b12:	3118      	adds	r1, #24
10002b14:	1ac9      	subs	r1, r1, r3
10002b16:	6883      	ldr	r3, [r0, #8]
10002b18:	2201      	movs	r2, #1
10002b1a:	4299      	cmp	r1, r3
10002b1c:	bf28      	it	cs
10002b1e:	f04f 31ff 	movcs.w	r1, #4294967295
10002b22:	f7ff ffbd 	bl	10002aa0 <metal_io_read.constprop.0>
10002b26:	b2c0      	uxtb	r0, r0
10002b28:	bd08      	pop	{r3, pc}

10002b2a <rproc_virtio_get_features>:
10002b2a:	b538      	push	{r3, r4, r5, lr}
10002b2c:	f1a0 0410 	sub.w	r4, r0, #16
10002b30:	f850 0c08 	ldr.w	r0, [r0, #-8]
10002b34:	6861      	ldr	r1, [r4, #4]
10002b36:	6803      	ldr	r3, [r0, #0]
10002b38:	3110      	adds	r1, #16
10002b3a:	1ac9      	subs	r1, r1, r3
10002b3c:	6883      	ldr	r3, [r0, #8]
10002b3e:	2204      	movs	r2, #4
10002b40:	4299      	cmp	r1, r3
10002b42:	bf28      	it	cs
10002b44:	f04f 31ff 	movcs.w	r1, #4294967295
10002b48:	f7ff ffaa 	bl	10002aa0 <metal_io_read.constprop.0>
10002b4c:	4605      	mov	r5, r0
10002b4e:	e9d4 1001 	ldrd	r1, r0, [r4, #4]
10002b52:	6803      	ldr	r3, [r0, #0]
10002b54:	310c      	adds	r1, #12
10002b56:	1ac9      	subs	r1, r1, r3
10002b58:	6883      	ldr	r3, [r0, #8]
10002b5a:	2204      	movs	r2, #4
10002b5c:	4299      	cmp	r1, r3
10002b5e:	bf28      	it	cs
10002b60:	f04f 31ff 	movcs.w	r1, #4294967295
10002b64:	f7ff ff9c 	bl	10002aa0 <metal_io_read.constprop.0>
10002b68:	4028      	ands	r0, r5
10002b6a:	bd38      	pop	{r3, r4, r5, pc}

10002b6c <rproc_virtio_create_vdev>:
10002b6c:	e92d 4ff0 	stmdb	sp!, {r4, r5, r6, r7, r8, r9, sl, fp, lr}
10002b70:	b085      	sub	sp, #20
10002b72:	4681      	mov	r9, r0
10002b74:	2048      	movs	r0, #72	; 0x48
10002b76:	7e57      	ldrb	r7, [r2, #25]
10002b78:	9101      	str	r1, [sp, #4]
10002b7a:	4690      	mov	r8, r2
10002b7c:	9302      	str	r3, [sp, #8]
10002b7e:	f000 fdd5 	bl	1000372c <malloc>
10002b82:	4604      	mov	r4, r0
10002b84:	b350      	cbz	r0, 10002bdc <rproc_virtio_create_vdev+0x70>
10002b86:	eb07 0047 	add.w	r0, r7, r7, lsl #1
10002b8a:	00c0      	lsls	r0, r0, #3
10002b8c:	f000 fdce 	bl	1000372c <malloc>
10002b90:	4606      	mov	r6, r0
10002b92:	2800      	cmp	r0, #0
10002b94:	d04f      	beq.n	10002c36 <rproc_virtio_create_vdev+0xca>
10002b96:	2248      	movs	r2, #72	; 0x48
10002b98:	2100      	movs	r1, #0
10002b9a:	4620      	mov	r0, r4
10002b9c:	f000 fde4 	bl	10003768 <memset>
10002ba0:	2218      	movs	r2, #24
10002ba2:	2100      	movs	r1, #0
10002ba4:	4630      	mov	r0, r6
10002ba6:	f000 fddf 	bl	10003768 <memset>
10002baa:	f04f 0a00 	mov.w	sl, #0
10002bae:	f04f 0b18 	mov.w	fp, #24
10002bb2:	45ba      	cmp	sl, r7
10002bb4:	d316      	bcc.n	10002be4 <rproc_virtio_create_vdev+0x78>
10002bb6:	9b0f      	ldr	r3, [sp, #60]	; 0x3c
10002bb8:	60e3      	str	r3, [r4, #12]
10002bba:	9b0e      	ldr	r3, [sp, #56]	; 0x38
10002bbc:	6023      	str	r3, [r4, #0]
10002bbe:	9b02      	ldr	r3, [sp, #8]
10002bc0:	60a3      	str	r3, [r4, #8]
10002bc2:	9b01      	ldr	r3, [sp, #4]
10002bc4:	6123      	str	r3, [r4, #16]
10002bc6:	9b10      	ldr	r3, [sp, #64]	; 0x40
10002bc8:	62e3      	str	r3, [r4, #44]	; 0x2c
10002bca:	4b1d      	ldr	r3, [pc, #116]	; (10002c40 <rproc_virtio_create_vdev+0xd4>)
10002bcc:	63e6      	str	r6, [r4, #60]	; 0x3c
10002bce:	f8c4 8004 	str.w	r8, [r4, #4]
10002bd2:	f8c4 9028 	str.w	r9, [r4, #40]	; 0x28
10002bd6:	63a7      	str	r7, [r4, #56]	; 0x38
10002bd8:	6323      	str	r3, [r4, #48]	; 0x30
10002bda:	3410      	adds	r4, #16
10002bdc:	4620      	mov	r0, r4
10002bde:	b005      	add	sp, #20
10002be0:	e8bd 8ff0 	ldmia.w	sp!, {r4, r5, r6, r7, r8, r9, sl, fp, pc}
10002be4:	f1b9 0f00 	cmp.w	r9, #0
10002be8:	d115      	bne.n	10002c16 <rproc_virtio_create_vdev+0xaa>
10002bea:	2314      	movs	r3, #20
10002bec:	fb03 820a 	mla	r2, r3, sl, r8
10002bf0:	6a52      	ldr	r2, [r2, #36]	; 0x24
10002bf2:	00d2      	lsls	r2, r2, #3
10002bf4:	3234      	adds	r2, #52	; 0x34
10002bf6:	4610      	mov	r0, r2
10002bf8:	9203      	str	r2, [sp, #12]
10002bfa:	f000 fd97 	bl	1000372c <malloc>
10002bfe:	4605      	mov	r5, r0
10002c00:	b158      	cbz	r0, 10002c1a <rproc_virtio_create_vdev+0xae>
10002c02:	9a03      	ldr	r2, [sp, #12]
10002c04:	2100      	movs	r1, #0
10002c06:	f000 fdaf 	bl	10003768 <memset>
10002c0a:	fb0b f20a 	mul.w	r2, fp, sl
10002c0e:	f10a 0a01 	add.w	sl, sl, #1
10002c12:	50b5      	str	r5, [r6, r2]
10002c14:	e7cd      	b.n	10002bb2 <rproc_virtio_create_vdev+0x46>
10002c16:	2200      	movs	r2, #0
10002c18:	e7eb      	b.n	10002bf2 <rproc_virtio_create_vdev+0x86>
10002c1a:	f04f 0818 	mov.w	r8, #24
10002c1e:	fb08 f305 	mul.w	r3, r8, r5
10002c22:	58f0      	ldr	r0, [r6, r3]
10002c24:	b108      	cbz	r0, 10002c2a <rproc_virtio_create_vdev+0xbe>
10002c26:	f000 fd89 	bl	1000373c <free>
10002c2a:	3501      	adds	r5, #1
10002c2c:	42af      	cmp	r7, r5
10002c2e:	d8f6      	bhi.n	10002c1e <rproc_virtio_create_vdev+0xb2>
10002c30:	4630      	mov	r0, r6
10002c32:	f000 fd83 	bl	1000373c <free>
10002c36:	4620      	mov	r0, r4
10002c38:	f000 fd80 	bl	1000373c <free>
10002c3c:	2400      	movs	r4, #0
10002c3e:	e7cd      	b.n	10002bdc <rproc_virtio_create_vdev+0x70>
10002c40:	100048e4 	.word	0x100048e4

10002c44 <rproc_virtio_init_vring>:
10002c44:	b510      	push	{r4, lr}
10002c46:	6a84      	ldr	r4, [r0, #40]	; 0x28
10002c48:	428c      	cmp	r4, r1
10002c4a:	d90d      	bls.n	10002c68 <rproc_virtio_init_vring+0x24>
10002c4c:	6ac0      	ldr	r0, [r0, #44]	; 0x2c
10002c4e:	2418      	movs	r4, #24
10002c50:	fb04 0101 	mla	r1, r4, r1, r0
10002c54:	9802      	ldr	r0, [sp, #8]
10002c56:	604b      	str	r3, [r1, #4]
10002c58:	9b03      	ldr	r3, [sp, #12]
10002c5a:	818b      	strh	r3, [r1, #12]
10002c5c:	9b04      	ldr	r3, [sp, #16]
10002c5e:	608b      	str	r3, [r1, #8]
10002c60:	e9c1 2004 	strd	r2, r0, [r1, #16]
10002c64:	2000      	movs	r0, #0
10002c66:	bd10      	pop	{r4, pc}
10002c68:	f06f 0001 	mvn.w	r0, #1
10002c6c:	e7fb      	b.n	10002c66 <rproc_virtio_init_vring+0x22>

10002c6e <rproc_virtio_wait_remote_ready>:
10002c6e:	6983      	ldr	r3, [r0, #24]
10002c70:	b510      	push	{r4, lr}
10002c72:	4604      	mov	r4, r0
10002c74:	b123      	cbz	r3, 10002c80 <rproc_virtio_wait_remote_ready+0x12>
10002c76:	4620      	mov	r0, r4
10002c78:	f7ff ff44 	bl	10002b04 <rproc_virtio_get_status>
10002c7c:	0743      	lsls	r3, r0, #29
10002c7e:	d5fa      	bpl.n	10002c76 <rproc_virtio_wait_remote_ready+0x8>
10002c80:	bd10      	pop	{r4, pc}

10002c82 <rpmsg_get_endpoint>:
10002c82:	e92d 43f8 	stmdb	sp!, {r3, r4, r5, r6, r7, r8, r9, lr}
10002c86:	6807      	ldr	r7, [r0, #0]
10002c88:	4680      	mov	r8, r0
10002c8a:	4689      	mov	r9, r1
10002c8c:	4615      	mov	r5, r2
10002c8e:	461e      	mov	r6, r3
10002c90:	45b8      	cmp	r8, r7
10002c92:	d103      	bne.n	10002c9c <rpmsg_get_endpoint+0x1a>
10002c94:	2400      	movs	r4, #0
10002c96:	4620      	mov	r0, r4
10002c98:	e8bd 83f8 	ldmia.w	sp!, {r3, r4, r5, r6, r7, r8, r9, pc}
10002c9c:	1c69      	adds	r1, r5, #1
10002c9e:	f1a7 0434 	sub.w	r4, r7, #52	; 0x34
10002ca2:	6a63      	ldr	r3, [r4, #36]	; 0x24
10002ca4:	d016      	beq.n	10002cd4 <rpmsg_get_endpoint+0x52>
10002ca6:	429d      	cmp	r5, r3
10002ca8:	d0f5      	beq.n	10002c96 <rpmsg_get_endpoint+0x14>
10002caa:	f1b9 0f00 	cmp.w	r9, #0
10002cae:	d00f      	beq.n	10002cd0 <rpmsg_get_endpoint+0x4e>
10002cb0:	2220      	movs	r2, #32
10002cb2:	4649      	mov	r1, r9
10002cb4:	4620      	mov	r0, r4
10002cb6:	f001 f93d 	bl	10003f34 <strncmp>
10002cba:	b948      	cbnz	r0, 10002cd0 <rpmsg_get_endpoint+0x4e>
10002cbc:	1c72      	adds	r2, r6, #1
10002cbe:	d002      	beq.n	10002cc6 <rpmsg_get_endpoint+0x44>
10002cc0:	6aa3      	ldr	r3, [r4, #40]	; 0x28
10002cc2:	42b3      	cmp	r3, r6
10002cc4:	d0e7      	beq.n	10002c96 <rpmsg_get_endpoint+0x14>
10002cc6:	1c6b      	adds	r3, r5, #1
10002cc8:	d102      	bne.n	10002cd0 <rpmsg_get_endpoint+0x4e>
10002cca:	6aa3      	ldr	r3, [r4, #40]	; 0x28
10002ccc:	3301      	adds	r3, #1
10002cce:	d0e2      	beq.n	10002c96 <rpmsg_get_endpoint+0x14>
10002cd0:	683f      	ldr	r7, [r7, #0]
10002cd2:	e7dd      	b.n	10002c90 <rpmsg_get_endpoint+0xe>
10002cd4:	3301      	adds	r3, #1
10002cd6:	d1e8      	bne.n	10002caa <rpmsg_get_endpoint+0x28>
10002cd8:	6aa3      	ldr	r3, [r4, #40]	; 0x28
10002cda:	42b3      	cmp	r3, r6
10002cdc:	e7e4      	b.n	10002ca8 <rpmsg_get_endpoint+0x26>

10002cde <rpmsg_register_endpoint>:
10002cde:	6842      	ldr	r2, [r0, #4]
10002ce0:	6208      	str	r0, [r1, #32]
10002ce2:	e9c1 020d 	strd	r0, r2, [r1, #52]	; 0x34
10002ce6:	f101 0334 	add.w	r3, r1, #52	; 0x34
10002cea:	6043      	str	r3, [r0, #4]
10002cec:	6b8a      	ldr	r2, [r1, #56]	; 0x38
10002cee:	6013      	str	r3, [r2, #0]
10002cf0:	4770      	bx	lr

10002cf2 <rpmsg_virtio_hold_rx_buffer>:
10002cf2:	f851 3c08 	ldr.w	r3, [r1, #-8]
10002cf6:	f043 4300 	orr.w	r3, r3, #2147483648	; 0x80000000
10002cfa:	f841 3c08 	str.w	r3, [r1, #-8]
10002cfe:	4770      	bx	lr

10002d00 <rpmsg_virtio_tx_callback>:
10002d00:	4770      	bx	lr

10002d02 <__metal_mutex_init>:
10002d02:	2300      	movs	r3, #0
10002d04:	f3bf 8f5b 	dmb	ish
10002d08:	6003      	str	r3, [r0, #0]
10002d0a:	f3bf 8f5b 	dmb	ish
10002d0e:	4770      	bx	lr

10002d10 <rpmsg_virtio_ns_callback>:
10002d10:	b5f0      	push	{r4, r5, r6, r7, lr}
10002d12:	2a28      	cmp	r2, #40	; 0x28
10002d14:	b089      	sub	sp, #36	; 0x24
10002d16:	460e      	mov	r6, r1
10002d18:	d136      	bne.n	10002d88 <rpmsg_virtio_ns_callback+0x78>
10002d1a:	6a05      	ldr	r5, [r0, #32]
10002d1c:	f8d5 0084 	ldr.w	r0, [r5, #132]	; 0x84
10002d20:	6801      	ldr	r1, [r0, #0]
10002d22:	6884      	ldr	r4, [r0, #8]
10002d24:	1a71      	subs	r1, r6, r1
10002d26:	42a1      	cmp	r1, r4
10002d28:	bf28      	it	cs
10002d2a:	f04f 31ff 	movcs.w	r1, #4294967295
10002d2e:	2320      	movs	r3, #32
10002d30:	466a      	mov	r2, sp
10002d32:	f7ff fe01 	bl	10002938 <metal_io_block_read>
10002d36:	6a37      	ldr	r7, [r6, #32]
10002d38:	2300      	movs	r3, #0
10002d3a:	f105 0458 	add.w	r4, r5, #88	; 0x58
10002d3e:	2101      	movs	r1, #1
10002d40:	f3bf 8f5b 	dmb	ish
10002d44:	e854 2f00 	ldrex	r2, [r4]
10002d48:	429a      	cmp	r2, r3
10002d4a:	bf04      	itt	eq
10002d4c:	e844 1000 	strexeq	r0, r1, [r4]
10002d50:	2800      	cmpeq	r0, #0
10002d52:	4613      	mov	r3, r2
10002d54:	f3bf 8f5b 	dmb	ish
10002d58:	d1f2      	bne.n	10002d40 <rpmsg_virtio_ns_callback+0x30>
10002d5a:	463b      	mov	r3, r7
10002d5c:	f04f 32ff 	mov.w	r2, #4294967295
10002d60:	4669      	mov	r1, sp
10002d62:	4628      	mov	r0, r5
10002d64:	f7ff ff8d 	bl	10002c82 <rpmsg_get_endpoint>
10002d68:	6a73      	ldr	r3, [r6, #36]	; 0x24
10002d6a:	07db      	lsls	r3, r3, #31
10002d6c:	4602      	mov	r2, r0
10002d6e:	d50e      	bpl.n	10002d8e <rpmsg_virtio_ns_callback+0x7e>
10002d70:	b110      	cbz	r0, 10002d78 <rpmsg_virtio_ns_callback+0x68>
10002d72:	f04f 33ff 	mov.w	r3, #4294967295
10002d76:	6283      	str	r3, [r0, #40]	; 0x28
10002d78:	4620      	mov	r0, r4
10002d7a:	f7ff ffc2 	bl	10002d02 <__metal_mutex_init>
10002d7e:	b11a      	cbz	r2, 10002d88 <rpmsg_virtio_ns_callback+0x78>
10002d80:	6b13      	ldr	r3, [r2, #48]	; 0x30
10002d82:	b10b      	cbz	r3, 10002d88 <rpmsg_virtio_ns_callback+0x78>
10002d84:	4610      	mov	r0, r2
10002d86:	4798      	blx	r3
10002d88:	2000      	movs	r0, #0
10002d8a:	b009      	add	sp, #36	; 0x24
10002d8c:	bdf0      	pop	{r4, r5, r6, r7, pc}
10002d8e:	b950      	cbnz	r0, 10002da6 <rpmsg_virtio_ns_callback+0x96>
10002d90:	4620      	mov	r0, r4
10002d92:	f7ff ffb6 	bl	10002d02 <__metal_mutex_init>
10002d96:	6deb      	ldr	r3, [r5, #92]	; 0x5c
10002d98:	2b00      	cmp	r3, #0
10002d9a:	d0f5      	beq.n	10002d88 <rpmsg_virtio_ns_callback+0x78>
10002d9c:	463a      	mov	r2, r7
10002d9e:	4669      	mov	r1, sp
10002da0:	4628      	mov	r0, r5
10002da2:	4798      	blx	r3
10002da4:	e7f0      	b.n	10002d88 <rpmsg_virtio_ns_callback+0x78>
10002da6:	6287      	str	r7, [r0, #40]	; 0x28
10002da8:	4620      	mov	r0, r4
10002daa:	f7ff ffaa 	bl	10002d02 <__metal_mutex_init>
10002dae:	e7eb      	b.n	10002d88 <rpmsg_virtio_ns_callback+0x78>

10002db0 <rpmsg_virtio_send_offchannel_nocopy>:
10002db0:	e92d 43f0 	stmdb	sp!, {r4, r5, r6, r7, r8, r9, lr}
10002db4:	4604      	mov	r4, r0
10002db6:	f8d0 0084 	ldr.w	r0, [r0, #132]	; 0x84
10002dba:	f853 6c08 	ldr.w	r6, [r3, #-8]
10002dbe:	6887      	ldr	r7, [r0, #8]
10002dc0:	b085      	sub	sp, #20
10002dc2:	e9cd 1200 	strd	r1, r2, [sp]
10002dc6:	6801      	ldr	r1, [r0, #0]
10002dc8:	f8dd 9030 	ldr.w	r9, [sp, #48]	; 0x30
10002dcc:	f8ad 900c 	strh.w	r9, [sp, #12]
10002dd0:	3b10      	subs	r3, #16
10002dd2:	1a59      	subs	r1, r3, r1
10002dd4:	2500      	movs	r5, #0
10002dd6:	42b9      	cmp	r1, r7
10002dd8:	bf28      	it	cs
10002dda:	f04f 31ff 	movcs.w	r1, #4294967295
10002dde:	2310      	movs	r3, #16
10002de0:	466a      	mov	r2, sp
10002de2:	9502      	str	r5, [sp, #8]
10002de4:	f8ad 500e 	strh.w	r5, [sp, #14]
10002de8:	f7ff fde1 	bl	100029ae <metal_io_block_write>
10002dec:	2810      	cmp	r0, #16
10002dee:	b2b6      	uxth	r6, r6
10002df0:	d006      	beq.n	10002e00 <rpmsg_virtio_send_offchannel_nocopy+0x50>
10002df2:	4b1b      	ldr	r3, [pc, #108]	; (10002e60 <rpmsg_virtio_send_offchannel_nocopy+0xb0>)
10002df4:	4a1b      	ldr	r2, [pc, #108]	; (10002e64 <rpmsg_virtio_send_offchannel_nocopy+0xb4>)
10002df6:	f240 117d 	movw	r1, #381	; 0x17d
10002dfa:	481b      	ldr	r0, [pc, #108]	; (10002e68 <rpmsg_virtio_send_offchannel_nocopy+0xb8>)
10002dfc:	f000 fc3c 	bl	10003678 <__assert_func>
10002e00:	f104 0858 	add.w	r8, r4, #88	; 0x58
10002e04:	2201      	movs	r2, #1
10002e06:	f3bf 8f5b 	dmb	ish
10002e0a:	e858 3f00 	ldrex	r3, [r8]
10002e0e:	42ab      	cmp	r3, r5
10002e10:	bf04      	itt	eq
10002e12:	e848 2100 	strexeq	r1, r2, [r8]
10002e16:	2900      	cmpeq	r1, #0
10002e18:	461d      	mov	r5, r3
10002e1a:	f3bf 8f5b 	dmb	ish
10002e1e:	d1f2      	bne.n	10002e06 <rpmsg_virtio_send_offchannel_nocopy+0x56>
10002e20:	f8d4 0080 	ldr.w	r0, [r4, #128]	; 0x80
10002e24:	4631      	mov	r1, r6
10002e26:	f000 fa63 	bl	100032f0 <virtqueue_get_buffer_length>
10002e2a:	6fa3      	ldr	r3, [r4, #120]	; 0x78
10002e2c:	699b      	ldr	r3, [r3, #24]
10002e2e:	2b01      	cmp	r3, #1
10002e30:	4602      	mov	r2, r0
10002e32:	d10a      	bne.n	10002e4a <rpmsg_virtio_send_offchannel_nocopy+0x9a>
10002e34:	f8d4 0080 	ldr.w	r0, [r4, #128]	; 0x80
10002e38:	4631      	mov	r1, r6
10002e3a:	f000 fab3 	bl	100033a4 <virtqueue_add_consumed_buffer>
10002e3e:	b120      	cbz	r0, 10002e4a <rpmsg_virtio_send_offchannel_nocopy+0x9a>
10002e40:	4b0a      	ldr	r3, [pc, #40]	; (10002e6c <rpmsg_virtio_send_offchannel_nocopy+0xbc>)
10002e42:	4a08      	ldr	r2, [pc, #32]	; (10002e64 <rpmsg_virtio_send_offchannel_nocopy+0xb4>)
10002e44:	f44f 71c5 	mov.w	r1, #394	; 0x18a
10002e48:	e7d7      	b.n	10002dfa <rpmsg_virtio_send_offchannel_nocopy+0x4a>
10002e4a:	f8d4 0080 	ldr.w	r0, [r4, #128]	; 0x80
10002e4e:	f000 fade 	bl	1000340e <virtqueue_kick>
10002e52:	4640      	mov	r0, r8
10002e54:	f7ff ff55 	bl	10002d02 <__metal_mutex_init>
10002e58:	4648      	mov	r0, r9
10002e5a:	b005      	add	sp, #20
10002e5c:	e8bd 83f0 	ldmia.w	sp!, {r4, r5, r6, r7, r8, r9, pc}
10002e60:	10004908 	.word	0x10004908
10002e64:	100049ec 	.word	0x100049ec
10002e68:	10004921 	.word	0x10004921
10002e6c:	10004996 	.word	0x10004996

10002e70 <rpmsg_virtio_release_rx_buffer>:
10002e70:	b537      	push	{r0, r1, r2, r4, r5, lr}
10002e72:	f851 1c08 	ldr.w	r1, [r1, #-8]
10002e76:	4604      	mov	r4, r0
10002e78:	f100 0558 	add.w	r5, r0, #88	; 0x58
10002e7c:	b289      	uxth	r1, r1
10002e7e:	2300      	movs	r3, #0
10002e80:	2001      	movs	r0, #1
10002e82:	f3bf 8f5b 	dmb	ish
10002e86:	e855 2f00 	ldrex	r2, [r5]
10002e8a:	429a      	cmp	r2, r3
10002e8c:	bf04      	itt	eq
10002e8e:	e845 0c00 	strexeq	ip, r0, [r5]
10002e92:	f1bc 0f00 	cmpeq.w	ip, #0
10002e96:	4613      	mov	r3, r2
10002e98:	f3bf 8f5b 	dmb	ish
10002e9c:	d1f1      	bne.n	10002e82 <rpmsg_virtio_release_rx_buffer+0x12>
10002e9e:	6fe0      	ldr	r0, [r4, #124]	; 0x7c
10002ea0:	9101      	str	r1, [sp, #4]
10002ea2:	f000 fa25 	bl	100032f0 <virtqueue_get_buffer_length>
10002ea6:	6fa3      	ldr	r3, [r4, #120]	; 0x78
10002ea8:	9901      	ldr	r1, [sp, #4]
10002eaa:	699b      	ldr	r3, [r3, #24]
10002eac:	2b01      	cmp	r3, #1
10002eae:	4602      	mov	r2, r0
10002eb0:	d102      	bne.n	10002eb8 <rpmsg_virtio_release_rx_buffer+0x48>
10002eb2:	6fe0      	ldr	r0, [r4, #124]	; 0x7c
10002eb4:	f000 fa76 	bl	100033a4 <virtqueue_add_consumed_buffer>
10002eb8:	4628      	mov	r0, r5
10002eba:	b003      	add	sp, #12
10002ebc:	e8bd 4030 	ldmia.w	sp!, {r4, r5, lr}
10002ec0:	f7ff bf1f 	b.w	10002d02 <__metal_mutex_init>

10002ec4 <rpmsg_virtio_rx_callback>:
10002ec4:	e92d 43f0 	stmdb	sp!, {r4, r5, r6, r7, r8, r9, lr}
10002ec8:	6803      	ldr	r3, [r0, #0]
10002eca:	6a5d      	ldr	r5, [r3, #36]	; 0x24
10002ecc:	b085      	sub	sp, #20
10002ece:	2300      	movs	r3, #0
10002ed0:	f105 0658 	add.w	r6, r5, #88	; 0x58
10002ed4:	2101      	movs	r1, #1
10002ed6:	f3bf 8f5b 	dmb	ish
10002eda:	e856 2f00 	ldrex	r2, [r6]
10002ede:	429a      	cmp	r2, r3
10002ee0:	bf04      	itt	eq
10002ee2:	e846 1000 	strexeq	r0, r1, [r6]
10002ee6:	2800      	cmpeq	r0, #0
10002ee8:	4613      	mov	r3, r2
10002eea:	f3bf 8f5b 	dmb	ish
10002eee:	d1f2      	bne.n	10002ed6 <rpmsg_virtio_rx_callback+0x12>
10002ef0:	6fab      	ldr	r3, [r5, #120]	; 0x78
10002ef2:	699b      	ldr	r3, [r3, #24]
10002ef4:	2b01      	cmp	r3, #1
10002ef6:	d10f      	bne.n	10002f18 <rpmsg_virtio_rx_callback+0x54>
10002ef8:	6fe8      	ldr	r0, [r5, #124]	; 0x7c
10002efa:	aa03      	add	r2, sp, #12
10002efc:	f10d 010a 	add.w	r1, sp, #10
10002f00:	f000 f9fb 	bl	100032fa <virtqueue_get_available_buffer>
10002f04:	4604      	mov	r4, r0
10002f06:	4630      	mov	r0, r6
10002f08:	f7ff fefb 	bl	10002d02 <__metal_mutex_init>
10002f0c:	f04f 0801 	mov.w	r8, #1
10002f10:	b924      	cbnz	r4, 10002f1c <rpmsg_virtio_rx_callback+0x58>
10002f12:	b005      	add	sp, #20
10002f14:	e8bd 83f0 	ldmia.w	sp!, {r4, r5, r6, r7, r8, r9, pc}
10002f18:	2400      	movs	r4, #0
10002f1a:	e7f4      	b.n	10002f06 <rpmsg_virtio_rx_callback+0x42>
10002f1c:	f8bd 300a 	ldrh.w	r3, [sp, #10]
10002f20:	60a3      	str	r3, [r4, #8]
10002f22:	2300      	movs	r3, #0
10002f24:	f3bf 8f5b 	dmb	ish
10002f28:	e856 2f00 	ldrex	r2, [r6]
10002f2c:	429a      	cmp	r2, r3
10002f2e:	bf04      	itt	eq
10002f30:	e846 8100 	strexeq	r1, r8, [r6]
10002f34:	2900      	cmpeq	r1, #0
10002f36:	4613      	mov	r3, r2
10002f38:	f3bf 8f5b 	dmb	ish
10002f3c:	d1f2      	bne.n	10002f24 <rpmsg_virtio_rx_callback+0x60>
10002f3e:	6862      	ldr	r2, [r4, #4]
10002f40:	f04f 33ff 	mov.w	r3, #4294967295
10002f44:	2100      	movs	r1, #0
10002f46:	4628      	mov	r0, r5
10002f48:	f7ff fe9b 	bl	10002c82 <rpmsg_get_endpoint>
10002f4c:	4607      	mov	r7, r0
10002f4e:	4630      	mov	r0, r6
10002f50:	f7ff fed7 	bl	10002d02 <__metal_mutex_init>
10002f54:	b1b7      	cbz	r7, 10002f84 <rpmsg_virtio_rx_callback+0xc0>
10002f56:	6aba      	ldr	r2, [r7, #40]	; 0x28
10002f58:	6823      	ldr	r3, [r4, #0]
10002f5a:	6bf9      	ldr	r1, [r7, #60]	; 0x3c
10002f5c:	3201      	adds	r2, #1
10002f5e:	bf08      	it	eq
10002f60:	62bb      	streq	r3, [r7, #40]	; 0x28
10002f62:	89a2      	ldrh	r2, [r4, #12]
10002f64:	9100      	str	r1, [sp, #0]
10002f66:	f8d7 902c 	ldr.w	r9, [r7, #44]	; 0x2c
10002f6a:	f104 0110 	add.w	r1, r4, #16
10002f6e:	4638      	mov	r0, r7
10002f70:	47c8      	blx	r9
10002f72:	2800      	cmp	r0, #0
10002f74:	da06      	bge.n	10002f84 <rpmsg_virtio_rx_callback+0xc0>
10002f76:	4b1c      	ldr	r3, [pc, #112]	; (10002fe8 <rpmsg_virtio_rx_callback+0x124>)
10002f78:	4a1c      	ldr	r2, [pc, #112]	; (10002fec <rpmsg_virtio_rx_callback+0x128>)
10002f7a:	481d      	ldr	r0, [pc, #116]	; (10002ff0 <rpmsg_virtio_rx_callback+0x12c>)
10002f7c:	f44f 71fd 	mov.w	r1, #506	; 0x1fa
10002f80:	f000 fb7a 	bl	10003678 <__assert_func>
10002f84:	2300      	movs	r3, #0
10002f86:	f3bf 8f5b 	dmb	ish
10002f8a:	e856 2f00 	ldrex	r2, [r6]
10002f8e:	429a      	cmp	r2, r3
10002f90:	bf04      	itt	eq
10002f92:	e846 8100 	strexeq	r1, r8, [r6]
10002f96:	2900      	cmpeq	r1, #0
10002f98:	4613      	mov	r3, r2
10002f9a:	f3bf 8f5b 	dmb	ish
10002f9e:	d1f2      	bne.n	10002f86 <rpmsg_virtio_rx_callback+0xc2>
10002fa0:	68a3      	ldr	r3, [r4, #8]
10002fa2:	2b00      	cmp	r3, #0
10002fa4:	db11      	blt.n	10002fca <rpmsg_virtio_rx_callback+0x106>
10002fa6:	6fab      	ldr	r3, [r5, #120]	; 0x78
10002fa8:	699b      	ldr	r3, [r3, #24]
10002faa:	2b01      	cmp	r3, #1
10002fac:	d007      	beq.n	10002fbe <rpmsg_virtio_rx_callback+0xfa>
10002fae:	6fe8      	ldr	r0, [r5, #124]	; 0x7c
10002fb0:	f000 fa2d 	bl	1000340e <virtqueue_kick>
10002fb4:	2400      	movs	r4, #0
10002fb6:	4630      	mov	r0, r6
10002fb8:	f7ff fea3 	bl	10002d02 <__metal_mutex_init>
10002fbc:	e7a8      	b.n	10002f10 <rpmsg_virtio_rx_callback+0x4c>
10002fbe:	9a03      	ldr	r2, [sp, #12]
10002fc0:	f8bd 100a 	ldrh.w	r1, [sp, #10]
10002fc4:	6fe8      	ldr	r0, [r5, #124]	; 0x7c
10002fc6:	f000 f9ed 	bl	100033a4 <virtqueue_add_consumed_buffer>
10002fca:	6fab      	ldr	r3, [r5, #120]	; 0x78
10002fcc:	699b      	ldr	r3, [r3, #24]
10002fce:	2b01      	cmp	r3, #1
10002fd0:	d1ed      	bne.n	10002fae <rpmsg_virtio_rx_callback+0xea>
10002fd2:	6fe8      	ldr	r0, [r5, #124]	; 0x7c
10002fd4:	aa03      	add	r2, sp, #12
10002fd6:	f10d 010a 	add.w	r1, sp, #10
10002fda:	f000 f98e 	bl	100032fa <virtqueue_get_available_buffer>
10002fde:	4604      	mov	r4, r0
10002fe0:	2800      	cmp	r0, #0
10002fe2:	d1e8      	bne.n	10002fb6 <rpmsg_virtio_rx_callback+0xf2>
10002fe4:	e7e3      	b.n	10002fae <rpmsg_virtio_rx_callback+0xea>
10002fe6:	bf00      	nop
10002fe8:	100049a2 	.word	0x100049a2
10002fec:	10004a10 	.word	0x10004a10
10002ff0:	10004921 	.word	0x10004921

10002ff4 <rpmsg_virtio_get_tx_payload_buffer>:
10002ff4:	e92d 43f7 	stmdb	sp!, {r0, r1, r2, r4, r5, r6, r7, r8, r9, lr}
10002ff8:	4606      	mov	r6, r0
10002ffa:	6f80      	ldr	r0, [r0, #120]	; 0x78
10002ffc:	6a03      	ldr	r3, [r0, #32]
10002ffe:	681b      	ldr	r3, [r3, #0]
10003000:	460f      	mov	r7, r1
10003002:	4615      	mov	r5, r2
10003004:	4798      	blx	r3
10003006:	0743      	lsls	r3, r0, #29
10003008:	d52b      	bpl.n	10003062 <rpmsg_virtio_get_tx_payload_buffer+0x6e>
1000300a:	2d00      	cmp	r5, #0
1000300c:	f643 2398 	movw	r3, #15000	; 0x3a98
10003010:	bf18      	it	ne
10003012:	461d      	movne	r5, r3
10003014:	f106 0858 	add.w	r8, r6, #88	; 0x58
10003018:	f04f 0901 	mov.w	r9, #1
1000301c:	2300      	movs	r3, #0
1000301e:	f3bf 8f5b 	dmb	ish
10003022:	e858 2f00 	ldrex	r2, [r8]
10003026:	429a      	cmp	r2, r3
10003028:	bf04      	itt	eq
1000302a:	e848 9100 	strexeq	r1, r9, [r8]
1000302e:	2900      	cmpeq	r1, #0
10003030:	4613      	mov	r3, r2
10003032:	f3bf 8f5b 	dmb	ish
10003036:	d1f2      	bne.n	1000301e <rpmsg_virtio_get_tx_payload_buffer+0x2a>
10003038:	6fb3      	ldr	r3, [r6, #120]	; 0x78
1000303a:	699b      	ldr	r3, [r3, #24]
1000303c:	2b01      	cmp	r3, #1
1000303e:	d10e      	bne.n	1000305e <rpmsg_virtio_get_tx_payload_buffer+0x6a>
10003040:	f8d6 0080 	ldr.w	r0, [r6, #128]	; 0x80
10003044:	463a      	mov	r2, r7
10003046:	f10d 0106 	add.w	r1, sp, #6
1000304a:	f000 f956 	bl	100032fa <virtqueue_get_available_buffer>
1000304e:	4604      	mov	r4, r0
10003050:	4640      	mov	r0, r8
10003052:	f7ff fe56 	bl	10002d02 <__metal_mutex_init>
10003056:	b944      	cbnz	r4, 1000306a <rpmsg_virtio_get_tx_payload_buffer+0x76>
10003058:	b11d      	cbz	r5, 10003062 <rpmsg_virtio_get_tx_payload_buffer+0x6e>
1000305a:	3d01      	subs	r5, #1
1000305c:	e7de      	b.n	1000301c <rpmsg_virtio_get_tx_payload_buffer+0x28>
1000305e:	2400      	movs	r4, #0
10003060:	e7f6      	b.n	10003050 <rpmsg_virtio_get_tx_payload_buffer+0x5c>
10003062:	2000      	movs	r0, #0
10003064:	b003      	add	sp, #12
10003066:	e8bd 83f0 	ldmia.w	sp!, {r4, r5, r6, r7, r8, r9, pc}
1000306a:	f8bd 3006 	ldrh.w	r3, [sp, #6]
1000306e:	60a3      	str	r3, [r4, #8]
10003070:	683b      	ldr	r3, [r7, #0]
10003072:	3b10      	subs	r3, #16
10003074:	603b      	str	r3, [r7, #0]
10003076:	f104 0010 	add.w	r0, r4, #16
1000307a:	e7f3      	b.n	10003064 <rpmsg_virtio_get_tx_payload_buffer+0x70>

1000307c <rpmsg_virtio_send_offchannel_raw>:
1000307c:	e92d 47ff 	stmdb	sp!, {r0, r1, r2, r3, r4, r5, r6, r7, r8, r9, sl, lr}
10003080:	4688      	mov	r8, r1
10003082:	4691      	mov	r9, r2
10003084:	a903      	add	r1, sp, #12
10003086:	9a0d      	ldr	r2, [sp, #52]	; 0x34
10003088:	4606      	mov	r6, r0
1000308a:	469a      	mov	sl, r3
1000308c:	f7ff ffb2 	bl	10002ff4 <rpmsg_virtio_get_tx_payload_buffer>
10003090:	4604      	mov	r4, r0
10003092:	b328      	cbz	r0, 100030e0 <rpmsg_virtio_send_offchannel_raw+0x64>
10003094:	f8d6 0084 	ldr.w	r0, [r6, #132]	; 0x84
10003098:	9d0c      	ldr	r5, [sp, #48]	; 0x30
1000309a:	9b03      	ldr	r3, [sp, #12]
1000309c:	6807      	ldr	r7, [r0, #0]
1000309e:	429d      	cmp	r5, r3
100030a0:	eba4 0107 	sub.w	r1, r4, r7
100030a4:	6887      	ldr	r7, [r0, #8]
100030a6:	bfa8      	it	ge
100030a8:	461d      	movge	r5, r3
100030aa:	462b      	mov	r3, r5
100030ac:	42b9      	cmp	r1, r7
100030ae:	bf28      	it	cs
100030b0:	f04f 31ff 	movcs.w	r1, #4294967295
100030b4:	4652      	mov	r2, sl
100030b6:	f7ff fc7a 	bl	100029ae <metal_io_block_write>
100030ba:	4285      	cmp	r5, r0
100030bc:	d006      	beq.n	100030cc <rpmsg_virtio_send_offchannel_raw+0x50>
100030be:	4b09      	ldr	r3, [pc, #36]	; (100030e4 <rpmsg_virtio_send_offchannel_raw+0x68>)
100030c0:	4a09      	ldr	r2, [pc, #36]	; (100030e8 <rpmsg_virtio_send_offchannel_raw+0x6c>)
100030c2:	480a      	ldr	r0, [pc, #40]	; (100030ec <rpmsg_virtio_send_offchannel_raw+0x70>)
100030c4:	f44f 71dd 	mov.w	r1, #442	; 0x1ba
100030c8:	f000 fad6 	bl	10003678 <__assert_func>
100030cc:	9500      	str	r5, [sp, #0]
100030ce:	4623      	mov	r3, r4
100030d0:	464a      	mov	r2, r9
100030d2:	4641      	mov	r1, r8
100030d4:	4630      	mov	r0, r6
100030d6:	f7ff fe6b 	bl	10002db0 <rpmsg_virtio_send_offchannel_nocopy>
100030da:	b004      	add	sp, #16
100030dc:	e8bd 87f0 	ldmia.w	sp!, {r4, r5, r6, r7, r8, r9, sl, pc}
100030e0:	4803      	ldr	r0, [pc, #12]	; (100030f0 <rpmsg_virtio_send_offchannel_raw+0x74>)
100030e2:	e7fa      	b.n	100030da <rpmsg_virtio_send_offchannel_raw+0x5e>
100030e4:	100049ae 	.word	0x100049ae
100030e8:	100049cb 	.word	0x100049cb
100030ec:	10004921 	.word	0x10004921
100030f0:	fffff82e 	.word	0xfffff82e

100030f4 <rpmsg_virtio_init_shm_pool>:
100030f4:	b110      	cbz	r0, 100030fc <rpmsg_virtio_init_shm_pool+0x8>
100030f6:	e9c0 2201 	strd	r2, r2, [r0, #4]
100030fa:	6001      	str	r1, [r0, #0]
100030fc:	4770      	bx	lr
	...

10003100 <rpmsg_init_vdev>:
10003100:	b5f0      	push	{r4, r5, r6, r7, lr}
10003102:	4604      	mov	r4, r0
10003104:	460d      	mov	r5, r1
10003106:	4616      	mov	r6, r2
10003108:	b087      	sub	sp, #28
1000310a:	2278      	movs	r2, #120	; 0x78
1000310c:	2100      	movs	r1, #0
1000310e:	461f      	mov	r7, r3
10003110:	f000 fb2a 	bl	10003768 <memset>
10003114:	f104 0058 	add.w	r0, r4, #88	; 0x58
10003118:	f7ff fdf3 	bl	10002d02 <__metal_mutex_init>
1000311c:	4b33      	ldr	r3, [pc, #204]	; (100031ec <rpmsg_init_vdev+0xec>)
1000311e:	65e6      	str	r6, [r4, #92]	; 0x5c
10003120:	67a5      	str	r5, [r4, #120]	; 0x78
10003122:	626c      	str	r4, [r5, #36]	; 0x24
10003124:	6623      	str	r3, [r4, #96]	; 0x60
10003126:	4b32      	ldr	r3, [pc, #200]	; (100031f0 <rpmsg_init_vdev+0xf0>)
10003128:	69ae      	ldr	r6, [r5, #24]
1000312a:	6663      	str	r3, [r4, #100]	; 0x64
1000312c:	4b31      	ldr	r3, [pc, #196]	; (100031f4 <rpmsg_init_vdev+0xf4>)
1000312e:	66a3      	str	r3, [r4, #104]	; 0x68
10003130:	4b31      	ldr	r3, [pc, #196]	; (100031f8 <rpmsg_init_vdev+0xf8>)
10003132:	66e3      	str	r3, [r4, #108]	; 0x6c
10003134:	2e01      	cmp	r6, #1
10003136:	4b31      	ldr	r3, [pc, #196]	; (100031fc <rpmsg_init_vdev+0xfc>)
10003138:	6723      	str	r3, [r4, #112]	; 0x70
1000313a:	d04a      	beq.n	100031d2 <rpmsg_init_vdev+0xd2>
1000313c:	6fa0      	ldr	r0, [r4, #120]	; 0x78
1000313e:	6a03      	ldr	r3, [r0, #32]
10003140:	689b      	ldr	r3, [r3, #8]
10003142:	4798      	blx	r3
10003144:	2300      	movs	r3, #0
10003146:	6128      	str	r0, [r5, #16]
10003148:	2e01      	cmp	r6, #1
1000314a:	f000 0001 	and.w	r0, r0, #1
1000314e:	616b      	str	r3, [r5, #20]
10003150:	f884 0074 	strb.w	r0, [r4, #116]	; 0x74
10003154:	d10d      	bne.n	10003172 <rpmsg_init_vdev+0x72>
10003156:	4b2a      	ldr	r3, [pc, #168]	; (10003200 <rpmsg_init_vdev+0x100>)
10003158:	9302      	str	r3, [sp, #8]
1000315a:	4b2a      	ldr	r3, [pc, #168]	; (10003204 <rpmsg_init_vdev+0x104>)
1000315c:	9303      	str	r3, [sp, #12]
1000315e:	4b2a      	ldr	r3, [pc, #168]	; (10003208 <rpmsg_init_vdev+0x108>)
10003160:	9304      	str	r3, [sp, #16]
10003162:	4b2a      	ldr	r3, [pc, #168]	; (1000320c <rpmsg_init_vdev+0x10c>)
10003164:	9305      	str	r3, [sp, #20]
10003166:	6aeb      	ldr	r3, [r5, #44]	; 0x2c
10003168:	699a      	ldr	r2, [r3, #24]
1000316a:	681b      	ldr	r3, [r3, #0]
1000316c:	67e2      	str	r2, [r4, #124]	; 0x7c
1000316e:	f8c4 3080 	str.w	r3, [r4, #128]	; 0x80
10003172:	ab04      	add	r3, sp, #16
10003174:	9300      	str	r3, [sp, #0]
10003176:	6fa0      	ldr	r0, [r4, #120]	; 0x78
10003178:	f8c4 7084 	str.w	r7, [r4, #132]	; 0x84
1000317c:	ab02      	add	r3, sp, #8
1000317e:	2202      	movs	r2, #2
10003180:	2100      	movs	r1, #0
10003182:	f000 f84d 	bl	10003220 <virtio_create_virtqueues>
10003186:	4606      	mov	r6, r0
10003188:	b9f0      	cbnz	r0, 100031c8 <rpmsg_init_vdev+0xc8>
1000318a:	f8d4 0080 	ldr.w	r0, [r4, #128]	; 0x80
1000318e:	f000 f925 	bl	100033dc <virtqueue_disable_cb>
10003192:	6aeb      	ldr	r3, [r5, #44]	; 0x2c
10003194:	681a      	ldr	r2, [r3, #0]
10003196:	699b      	ldr	r3, [r3, #24]
10003198:	6297      	str	r7, [r2, #40]	; 0x28
1000319a:	629f      	str	r7, [r3, #40]	; 0x28
1000319c:	f894 3074 	ldrb.w	r3, [r4, #116]	; 0x74
100031a0:	e9c4 4400 	strd	r4, r4, [r4]
100031a4:	b183      	cbz	r3, 100031c8 <rpmsg_init_vdev+0xc8>
100031a6:	f104 0308 	add.w	r3, r4, #8
100031aa:	4919      	ldr	r1, [pc, #100]	; (10003210 <rpmsg_init_vdev+0x110>)
100031ac:	2220      	movs	r2, #32
100031ae:	4618      	mov	r0, r3
100031b0:	f000 fed4 	bl	10003f5c <strncpy>
100031b4:	2235      	movs	r2, #53	; 0x35
100031b6:	e9c4 220b 	strd	r2, r2, [r4, #44]	; 0x2c
100031ba:	4a16      	ldr	r2, [pc, #88]	; (10003214 <rpmsg_init_vdev+0x114>)
100031bc:	4601      	mov	r1, r0
100031be:	e9c4 260d 	strd	r2, r6, [r4, #52]	; 0x34
100031c2:	4620      	mov	r0, r4
100031c4:	f7ff fd8b 	bl	10002cde <rpmsg_register_endpoint>
100031c8:	4630      	mov	r0, r6
100031ca:	b007      	add	sp, #28
100031cc:	bdf0      	pop	{r4, r5, r6, r7, pc}
100031ce:	0743      	lsls	r3, r0, #29
100031d0:	d4b4      	bmi.n	1000313c <rpmsg_init_vdev+0x3c>
100031d2:	6fa0      	ldr	r0, [r4, #120]	; 0x78
100031d4:	6a03      	ldr	r3, [r0, #32]
100031d6:	681b      	ldr	r3, [r3, #0]
100031d8:	4798      	blx	r3
100031da:	0642      	lsls	r2, r0, #25
100031dc:	d5f7      	bpl.n	100031ce <rpmsg_init_vdev+0xce>
100031de:	6fa0      	ldr	r0, [r4, #120]	; 0x78
100031e0:	6a03      	ldr	r3, [r0, #32]
100031e2:	2100      	movs	r1, #0
100031e4:	685b      	ldr	r3, [r3, #4]
100031e6:	4798      	blx	r3
100031e8:	e7f3      	b.n	100031d2 <rpmsg_init_vdev+0xd2>
100031ea:	bf00      	nop
100031ec:	1000307d 	.word	0x1000307d
100031f0:	10002cf3 	.word	0x10002cf3
100031f4:	10002e71 	.word	0x10002e71
100031f8:	10002ff5 	.word	0x10002ff5
100031fc:	10002db1 	.word	0x10002db1
10003200:	100049bc 	.word	0x100049bc
10003204:	100049c2 	.word	0x100049c2
10003208:	10002d01 	.word	0x10002d01
1000320c:	10002ec5 	.word	0x10002ec5
10003210:	100049c8 	.word	0x100049c8
10003214:	10002d11 	.word	0x10002d11

10003218 <metal_machine_cache_flush>:
10003218:	4770      	bx	lr

1000321a <metal_machine_cache_invalidate>:
1000321a:	4770      	bx	lr

1000321c <metal_machine_io_mem_map>:
1000321c:	4770      	bx	lr
	...

10003220 <virtio_create_virtqueues>:
10003220:	e92d 43f0 	stmdb	sp!, {r4, r5, r6, r7, r8, r9, lr}
10003224:	461f      	mov	r7, r3
10003226:	6a83      	ldr	r3, [r0, #40]	; 0x28
10003228:	b085      	sub	sp, #20
1000322a:	4293      	cmp	r3, r2
1000322c:	f8dd 8030 	ldr.w	r8, [sp, #48]	; 0x30
10003230:	4605      	mov	r5, r0
10003232:	4616      	mov	r6, r2
10003234:	d31f      	bcc.n	10003276 <virtio_create_virtqueues+0x56>
10003236:	2400      	movs	r4, #0
10003238:	f04f 0918 	mov.w	r9, #24
1000323c:	42b4      	cmp	r4, r6
1000323e:	d103      	bne.n	10003248 <virtio_create_virtqueues+0x28>
10003240:	2000      	movs	r0, #0
10003242:	b005      	add	sp, #20
10003244:	e8bd 83f0 	ldmia.w	sp!, {r4, r5, r6, r7, r8, r9, pc}
10003248:	6ae9      	ldr	r1, [r5, #44]	; 0x2c
1000324a:	fb09 f204 	mul.w	r2, r9, r4
1000324e:	188b      	adds	r3, r1, r2
10003250:	588a      	ldr	r2, [r1, r2]
10003252:	9202      	str	r2, [sp, #8]
10003254:	6a2a      	ldr	r2, [r5, #32]
10003256:	6a12      	ldr	r2, [r2, #32]
10003258:	9201      	str	r2, [sp, #4]
1000325a:	f858 2024 	ldr.w	r2, [r8, r4, lsl #2]
1000325e:	9200      	str	r2, [sp, #0]
10003260:	3304      	adds	r3, #4
10003262:	f857 2024 	ldr.w	r2, [r7, r4, lsl #2]
10003266:	b2a1      	uxth	r1, r4
10003268:	4628      	mov	r0, r5
1000326a:	f000 f824 	bl	100032b6 <virtqueue_create>
1000326e:	2800      	cmp	r0, #0
10003270:	d1e7      	bne.n	10003242 <virtio_create_virtqueues+0x22>
10003272:	3401      	adds	r4, #1
10003274:	e7e2      	b.n	1000323c <virtio_create_virtqueues+0x1c>
10003276:	4801      	ldr	r0, [pc, #4]	; (1000327c <virtio_create_virtqueues+0x5c>)
10003278:	e7e3      	b.n	10003242 <virtio_create_virtqueues+0x22>
1000327a:	bf00      	nop
1000327c:	fffff440 	.word	0xfffff440

10003280 <metal_io_phys>:
10003280:	b430      	push	{r4, r5}
10003282:	6b04      	ldr	r4, [r0, #48]	; 0x30
10003284:	460b      	mov	r3, r1
10003286:	b984      	cbnz	r4, 100032aa <metal_io_phys+0x2a>
10003288:	68c1      	ldr	r1, [r0, #12]
1000328a:	6845      	ldr	r5, [r0, #4]
1000328c:	291f      	cmp	r1, #31
1000328e:	bf98      	it	ls
10003290:	fa23 f401 	lsrls.w	r4, r3, r1
10003294:	b165      	cbz	r5, 100032b0 <metal_io_phys+0x30>
10003296:	6881      	ldr	r1, [r0, #8]
10003298:	428b      	cmp	r3, r1
1000329a:	d209      	bcs.n	100032b0 <metal_io_phys+0x30>
1000329c:	6900      	ldr	r0, [r0, #16]
1000329e:	4003      	ands	r3, r0
100032a0:	f855 0024 	ldr.w	r0, [r5, r4, lsl #2]
100032a4:	4418      	add	r0, r3
100032a6:	bc30      	pop	{r4, r5}
100032a8:	4770      	bx	lr
100032aa:	4623      	mov	r3, r4
100032ac:	bc30      	pop	{r4, r5}
100032ae:	4718      	bx	r3
100032b0:	f04f 30ff 	mov.w	r0, #4294967295
100032b4:	e7f7      	b.n	100032a6 <metal_io_phys+0x26>

100032b6 <virtqueue_create>:
100032b6:	b510      	push	{r4, lr}
100032b8:	9c04      	ldr	r4, [sp, #16]
100032ba:	e9c4 0200 	strd	r0, r2, [r4]
100032be:	9a02      	ldr	r2, [sp, #8]
100032c0:	8121      	strh	r1, [r4, #8]
100032c2:	8919      	ldrh	r1, [r3, #8]
100032c4:	60e2      	str	r2, [r4, #12]
100032c6:	9a03      	ldr	r2, [sp, #12]
100032c8:	6122      	str	r2, [r4, #16]
100032ca:	e9d3 2000 	ldrd	r2, r0, [r3]
100032ce:	8161      	strh	r1, [r4, #10]
100032d0:	eb02 1301 	add.w	r3, r2, r1, lsl #4
100032d4:	e9c4 1205 	strd	r1, r2, [r4, #20]
100032d8:	84a1      	strh	r1, [r4, #36]	; 0x24
100032da:	3102      	adds	r1, #2
100032dc:	1c42      	adds	r2, r0, #1
100032de:	61e3      	str	r3, [r4, #28]
100032e0:	eb03 0341 	add.w	r3, r3, r1, lsl #1
100032e4:	4413      	add	r3, r2
100032e6:	4240      	negs	r0, r0
100032e8:	4003      	ands	r3, r0
100032ea:	6223      	str	r3, [r4, #32]
100032ec:	2000      	movs	r0, #0
100032ee:	bd10      	pop	{r4, pc}

100032f0 <virtqueue_get_buffer_length>:
100032f0:	6983      	ldr	r3, [r0, #24]
100032f2:	eb03 1101 	add.w	r1, r3, r1, lsl #4
100032f6:	6888      	ldr	r0, [r1, #8]
100032f8:	4770      	bx	lr

100032fa <virtqueue_get_available_buffer>:
100032fa:	e92d 43f8 	stmdb	sp!, {r3, r4, r5, r6, r7, r8, r9, lr}
100032fe:	4617      	mov	r7, r2
10003300:	f3bf 8f5b 	dmb	ish
10003304:	69c2      	ldr	r2, [r0, #28]
10003306:	460e      	mov	r6, r1
10003308:	8853      	ldrh	r3, [r2, #2]
1000330a:	8e01      	ldrh	r1, [r0, #48]	; 0x30
1000330c:	428b      	cmp	r3, r1
1000330e:	4605      	mov	r5, r0
10003310:	d045      	beq.n	1000339e <virtqueue_get_available_buffer+0xa4>
10003312:	1c4b      	adds	r3, r1, #1
10003314:	8603      	strh	r3, [r0, #48]	; 0x30
10003316:	8943      	ldrh	r3, [r0, #10]
10003318:	f8d0 8028 	ldr.w	r8, [r0, #40]	; 0x28
1000331c:	3b01      	subs	r3, #1
1000331e:	400b      	ands	r3, r1
10003320:	eb02 0343 	add.w	r3, r2, r3, lsl #1
10003324:	889a      	ldrh	r2, [r3, #4]
10003326:	8032      	strh	r2, [r6, #0]
10003328:	b293      	uxth	r3, r2
1000332a:	011b      	lsls	r3, r3, #4
1000332c:	6982      	ldr	r2, [r0, #24]
1000332e:	f852 9003 	ldr.w	r9, [r2, r3]
10003332:	f8d8 3034 	ldr.w	r3, [r8, #52]	; 0x34
10003336:	bb5b      	cbnz	r3, 10003390 <virtqueue_get_available_buffer+0x96>
10003338:	f8d8 4010 	ldr.w	r4, [r8, #16]
1000333c:	1c62      	adds	r2, r4, #1
1000333e:	bf05      	ittet	eq
10003340:	f8d8 3004 	ldreq.w	r3, [r8, #4]
10003344:	681c      	ldreq	r4, [r3, #0]
10003346:	ea09 0404 	andne.w	r4, r9, r4
1000334a:	eba9 0404 	subeq.w	r4, r9, r4
1000334e:	4621      	mov	r1, r4
10003350:	4640      	mov	r0, r8
10003352:	f7ff ff95 	bl	10003280 <metal_io_phys>
10003356:	4581      	cmp	r9, r0
10003358:	d009      	beq.n	1000336e <virtqueue_get_available_buffer+0x74>
1000335a:	f8d8 3010 	ldr.w	r3, [r8, #16]
1000335e:	3301      	adds	r3, #1
10003360:	441c      	add	r4, r3
10003362:	f8d8 3008 	ldr.w	r3, [r8, #8]
10003366:	429c      	cmp	r4, r3
10003368:	d3f1      	bcc.n	1000334e <virtqueue_get_available_buffer+0x54>
1000336a:	f04f 34ff 	mov.w	r4, #4294967295
1000336e:	f8d8 0000 	ldr.w	r0, [r8]
10003372:	1c43      	adds	r3, r0, #1
10003374:	d011      	beq.n	1000339a <virtqueue_get_available_buffer+0xa0>
10003376:	f8d8 3008 	ldr.w	r3, [r8, #8]
1000337a:	42a3      	cmp	r3, r4
1000337c:	d90d      	bls.n	1000339a <virtqueue_get_available_buffer+0xa0>
1000337e:	4420      	add	r0, r4
10003380:	8832      	ldrh	r2, [r6, #0]
10003382:	69ab      	ldr	r3, [r5, #24]
10003384:	eb03 1302 	add.w	r3, r3, r2, lsl #4
10003388:	689b      	ldr	r3, [r3, #8]
1000338a:	603b      	str	r3, [r7, #0]
1000338c:	e8bd 83f8 	ldmia.w	sp!, {r3, r4, r5, r6, r7, r8, r9, pc}
10003390:	4649      	mov	r1, r9
10003392:	4640      	mov	r0, r8
10003394:	4798      	blx	r3
10003396:	4604      	mov	r4, r0
10003398:	e7e9      	b.n	1000336e <virtqueue_get_available_buffer+0x74>
1000339a:	2000      	movs	r0, #0
1000339c:	e7f0      	b.n	10003380 <virtqueue_get_available_buffer+0x86>
1000339e:	2000      	movs	r0, #0
100033a0:	e7f4      	b.n	1000338c <virtqueue_get_available_buffer+0x92>
	...

100033a4 <virtqueue_add_consumed_buffer>:
100033a4:	b530      	push	{r4, r5, lr}
100033a6:	8944      	ldrh	r4, [r0, #10]
100033a8:	428c      	cmp	r4, r1
100033aa:	d312      	bcc.n	100033d2 <virtqueue_add_consumed_buffer+0x2e>
100033ac:	6a03      	ldr	r3, [r0, #32]
100033ae:	885d      	ldrh	r5, [r3, #2]
100033b0:	3c01      	subs	r4, #1
100033b2:	402c      	ands	r4, r5
100033b4:	eb03 03c4 	add.w	r3, r3, r4, lsl #3
100033b8:	609a      	str	r2, [r3, #8]
100033ba:	6059      	str	r1, [r3, #4]
100033bc:	f3bf 8f5b 	dmb	ish
100033c0:	6a02      	ldr	r2, [r0, #32]
100033c2:	8853      	ldrh	r3, [r2, #2]
100033c4:	3301      	adds	r3, #1
100033c6:	8053      	strh	r3, [r2, #2]
100033c8:	8cc3      	ldrh	r3, [r0, #38]	; 0x26
100033ca:	3301      	adds	r3, #1
100033cc:	84c3      	strh	r3, [r0, #38]	; 0x26
100033ce:	2000      	movs	r0, #0
100033d0:	bd30      	pop	{r4, r5, pc}
100033d2:	4801      	ldr	r0, [pc, #4]	; (100033d8 <virtqueue_add_consumed_buffer+0x34>)
100033d4:	e7fc      	b.n	100033d0 <virtqueue_add_consumed_buffer+0x2c>
100033d6:	bf00      	nop
100033d8:	fffff441 	.word	0xfffff441

100033dc <virtqueue_disable_cb>:
100033dc:	6802      	ldr	r2, [r0, #0]
100033de:	6993      	ldr	r3, [r2, #24]
100033e0:	6912      	ldr	r2, [r2, #16]
100033e2:	0092      	lsls	r2, r2, #2
100033e4:	d50b      	bpl.n	100033fe <virtqueue_disable_cb+0x22>
100033e6:	2b01      	cmp	r3, #1
100033e8:	d110      	bne.n	1000340c <virtqueue_disable_cb+0x30>
100033ea:	6a02      	ldr	r2, [r0, #32]
100033ec:	6941      	ldr	r1, [r0, #20]
100033ee:	8e03      	ldrh	r3, [r0, #48]	; 0x30
100033f0:	8940      	ldrh	r0, [r0, #10]
100033f2:	3b01      	subs	r3, #1
100033f4:	eb02 02c1 	add.w	r2, r2, r1, lsl #3
100033f8:	1a1b      	subs	r3, r3, r0
100033fa:	8093      	strh	r3, [r2, #4]
100033fc:	4770      	bx	lr
100033fe:	2b01      	cmp	r3, #1
10003400:	bf01      	itttt	eq
10003402:	6a02      	ldreq	r2, [r0, #32]
10003404:	8813      	ldrheq	r3, [r2, #0]
10003406:	f043 0301 	orreq.w	r3, r3, #1
1000340a:	8013      	strheq	r3, [r2, #0]
1000340c:	4770      	bx	lr

1000340e <virtqueue_kick>:
1000340e:	b510      	push	{r4, lr}
10003410:	f3bf 8f5b 	dmb	ish
10003414:	6803      	ldr	r3, [r0, #0]
10003416:	691a      	ldr	r2, [r3, #16]
10003418:	699b      	ldr	r3, [r3, #24]
1000341a:	f012 5f00 	tst.w	r2, #536870912	; 0x20000000
1000341e:	4604      	mov	r4, r0
10003420:	d011      	beq.n	10003446 <virtqueue_kick+0x38>
10003422:	2b01      	cmp	r3, #1
10003424:	d10c      	bne.n	10003440 <virtqueue_kick+0x32>
10003426:	69c2      	ldr	r2, [r0, #28]
10003428:	6941      	ldr	r1, [r0, #20]
1000342a:	6a03      	ldr	r3, [r0, #32]
1000342c:	eb02 0241 	add.w	r2, r2, r1, lsl #1
10003430:	885b      	ldrh	r3, [r3, #2]
10003432:	8892      	ldrh	r2, [r2, #4]
10003434:	3b01      	subs	r3, #1
10003436:	1a9b      	subs	r3, r3, r2
10003438:	8cc2      	ldrh	r2, [r0, #38]	; 0x26
1000343a:	b29b      	uxth	r3, r3
1000343c:	429a      	cmp	r2, r3
1000343e:	d808      	bhi.n	10003452 <virtqueue_kick+0x44>
10003440:	2300      	movs	r3, #0
10003442:	84e3      	strh	r3, [r4, #38]	; 0x26
10003444:	bd10      	pop	{r4, pc}
10003446:	2b01      	cmp	r3, #1
10003448:	d1fa      	bne.n	10003440 <virtqueue_kick+0x32>
1000344a:	69c3      	ldr	r3, [r0, #28]
1000344c:	881b      	ldrh	r3, [r3, #0]
1000344e:	07db      	lsls	r3, r3, #31
10003450:	d4f6      	bmi.n	10003440 <virtqueue_kick+0x32>
10003452:	6923      	ldr	r3, [r4, #16]
10003454:	2b00      	cmp	r3, #0
10003456:	d0f3      	beq.n	10003440 <virtqueue_kick+0x32>
10003458:	4620      	mov	r0, r4
1000345a:	4798      	blx	r3
1000345c:	e7f0      	b.n	10003440 <virtqueue_kick+0x32>
	...

10003460 <IPCC_channel1_callback>:
10003460:	4b02      	ldr	r3, [pc, #8]	; (1000346c <IPCC_channel1_callback+0xc>)
10003462:	2202      	movs	r2, #2
10003464:	601a      	str	r2, [r3, #0]
10003466:	2201      	movs	r2, #1
10003468:	f7fd b944 	b.w	100006f4 <HAL_IPCC_NotifyCPU>
1000346c:	10020234 	.word	0x10020234

10003470 <IPCC_channel2_callback>:
10003470:	4b02      	ldr	r3, [pc, #8]	; (1000347c <IPCC_channel2_callback+0xc>)
10003472:	2201      	movs	r2, #1
10003474:	601a      	str	r2, [r3, #0]
10003476:	f7fd b93d 	b.w	100006f4 <HAL_IPCC_NotifyCPU>
1000347a:	bf00      	nop
1000347c:	10020238 	.word	0x10020238

10003480 <MAILBOX_Init>:
10003480:	b508      	push	{r3, lr}
10003482:	480a      	ldr	r0, [pc, #40]	; (100034ac <MAILBOX_Init+0x2c>)
10003484:	4b0a      	ldr	r3, [pc, #40]	; (100034b0 <MAILBOX_Init+0x30>)
10003486:	2201      	movs	r2, #1
10003488:	2100      	movs	r1, #0
1000348a:	f7fd f90b 	bl	100006a4 <HAL_IPCC_ActivateNotification>
1000348e:	b950      	cbnz	r0, 100034a6 <MAILBOX_Init+0x26>
10003490:	2201      	movs	r2, #1
10003492:	4b08      	ldr	r3, [pc, #32]	; (100034b4 <MAILBOX_Init+0x34>)
10003494:	4805      	ldr	r0, [pc, #20]	; (100034ac <MAILBOX_Init+0x2c>)
10003496:	4611      	mov	r1, r2
10003498:	f7fd f904 	bl	100006a4 <HAL_IPCC_ActivateNotification>
1000349c:	3800      	subs	r0, #0
1000349e:	bf18      	it	ne
100034a0:	2001      	movne	r0, #1
100034a2:	4240      	negs	r0, r0
100034a4:	bd08      	pop	{r3, pc}
100034a6:	f04f 30ff 	mov.w	r0, #4294967295
100034aa:	e7fb      	b.n	100034a4 <MAILBOX_Init+0x24>
100034ac:	100201d0 	.word	0x100201d0
100034b0:	10003461 	.word	0x10003461
100034b4:	10003471 	.word	0x10003471

100034b8 <MAILBOX_Notify>:
100034b8:	b513      	push	{r0, r1, r4, lr}
100034ba:	b109      	cbz	r1, 100034c0 <MAILBOX_Notify+0x8>
100034bc:	2901      	cmp	r1, #1
100034be:	d117      	bne.n	100034f0 <MAILBOX_Notify+0x38>
100034c0:	480d      	ldr	r0, [pc, #52]	; (100034f8 <MAILBOX_Notify+0x40>)
100034c2:	9101      	str	r1, [sp, #4]
100034c4:	2200      	movs	r2, #0
100034c6:	f7fd f875 	bl	100005b4 <HAL_IPCC_GetChannelStatus>
100034ca:	2801      	cmp	r0, #1
100034cc:	9901      	ldr	r1, [sp, #4]
100034ce:	d108      	bne.n	100034e2 <MAILBOX_Notify+0x2a>
100034d0:	4c09      	ldr	r4, [pc, #36]	; (100034f8 <MAILBOX_Notify+0x40>)
100034d2:	9101      	str	r1, [sp, #4]
100034d4:	2200      	movs	r2, #0
100034d6:	4620      	mov	r0, r4
100034d8:	f7fd f86c 	bl	100005b4 <HAL_IPCC_GetChannelStatus>
100034dc:	2801      	cmp	r0, #1
100034de:	9901      	ldr	r1, [sp, #4]
100034e0:	d0f7      	beq.n	100034d2 <MAILBOX_Notify+0x1a>
100034e2:	4805      	ldr	r0, [pc, #20]	; (100034f8 <MAILBOX_Notify+0x40>)
100034e4:	2200      	movs	r2, #0
100034e6:	f7fd f905 	bl	100006f4 <HAL_IPCC_NotifyCPU>
100034ea:	2000      	movs	r0, #0
100034ec:	b002      	add	sp, #8
100034ee:	bd10      	pop	{r4, pc}
100034f0:	f04f 30ff 	mov.w	r0, #4294967295
100034f4:	e7fa      	b.n	100034ec <MAILBOX_Notify+0x34>
100034f6:	bf00      	nop
100034f8:	100201d0 	.word	0x100201d0

100034fc <MX_OPENAMP_Init>:
100034fc:	e92d 47f0 	stmdb	sp!, {r4, r5, r6, r7, r8, r9, sl, lr}
10003500:	b08a      	sub	sp, #40	; 0x28
10003502:	468a      	mov	sl, r1
10003504:	4606      	mov	r6, r0
10003506:	f7ff ffbb 	bl	10003480 <MAILBOX_Init>
1000350a:	494a      	ldr	r1, [pc, #296]	; (10003634 <MX_OPENAMP_Init+0x138>)
1000350c:	c903      	ldmia	r1, {r0, r1}
1000350e:	ab08      	add	r3, sp, #32
10003510:	2200      	movs	r2, #0
10003512:	e883 0003 	stmia.w	r3, {r0, r1}
10003516:	4618      	mov	r0, r3
10003518:	e9cd 2206 	strd	r2, r2, [sp, #24]
1000351c:	9205      	str	r2, [sp, #20]
1000351e:	f7ff f9bd 	bl	1000289c <metal_init>
10003522:	4845      	ldr	r0, [pc, #276]	; (10003638 <MX_OPENAMP_Init+0x13c>)
10003524:	f7ff f960 	bl	100027e8 <metal_register_generic_device>
10003528:	4604      	mov	r4, r0
1000352a:	2800      	cmp	r0, #0
1000352c:	d17d      	bne.n	1000362a <MX_OPENAMP_Init+0x12e>
1000352e:	4943      	ldr	r1, [pc, #268]	; (1000363c <MX_OPENAMP_Init+0x140>)
10003530:	4843      	ldr	r0, [pc, #268]	; (10003640 <MX_OPENAMP_Init+0x144>)
10003532:	aa05      	add	r2, sp, #20
10003534:	f7ff f93c 	bl	100027b0 <metal_device_open>
10003538:	4604      	mov	r4, r0
1000353a:	2800      	cmp	r0, #0
1000353c:	d175      	bne.n	1000362a <MX_OPENAMP_Init+0x12e>
1000353e:	4a41      	ldr	r2, [pc, #260]	; (10003644 <MX_OPENAMP_Init+0x148>)
10003540:	4941      	ldr	r1, [pc, #260]	; (10003648 <MX_OPENAMP_Init+0x14c>)
10003542:	4b42      	ldr	r3, [pc, #264]	; (1000364c <MX_OPENAMP_Init+0x150>)
10003544:	6011      	str	r1, [r2, #0]
10003546:	e9cd 0001 	strd	r0, r0, [sp, #4]
1000354a:	9805      	ldr	r0, [sp, #20]
1000354c:	4f40      	ldr	r7, [pc, #256]	; (10003650 <MX_OPENAMP_Init+0x154>)
1000354e:	eba3 0801 	sub.w	r8, r3, r1
10003552:	f04f 35ff 	mov.w	r5, #4294967295
10003556:	4643      	mov	r3, r8
10003558:	9500      	str	r5, [sp, #0]
1000355a:	300c      	adds	r0, #12
1000355c:	f7ff f9be 	bl	100028dc <metal_io_init>
10003560:	9b05      	ldr	r3, [sp, #20]
10003562:	689a      	ldr	r2, [r3, #8]
10003564:	b912      	cbnz	r2, 1000356c <MX_OPENAMP_Init+0x70>
10003566:	603c      	str	r4, [r7, #0]
10003568:	462c      	mov	r4, r5
1000356a:	e05e      	b.n	1000362a <MX_OPENAMP_Init+0x12e>
1000356c:	330c      	adds	r3, #12
1000356e:	aa07      	add	r2, sp, #28
10003570:	a906      	add	r1, sp, #24
10003572:	4630      	mov	r0, r6
10003574:	f8df 90e8 	ldr.w	r9, [pc, #232]	; 10003660 <MX_OPENAMP_Init+0x164>
10003578:	603b      	str	r3, [r7, #0]
1000357a:	f000 f875 	bl	10003668 <resource_table_init>
1000357e:	9a06      	ldr	r2, [sp, #24]
10003580:	f8c9 2000 	str.w	r2, [r9]
10003584:	2a00      	cmp	r2, #0
10003586:	d0ef      	beq.n	10003568 <MX_OPENAMP_Init+0x6c>
10003588:	9805      	ldr	r0, [sp, #20]
1000358a:	9b07      	ldr	r3, [sp, #28]
1000358c:	9500      	str	r5, [sp, #0]
1000358e:	4611      	mov	r1, r2
10003590:	e9cd 4401 	strd	r4, r4, [sp, #4]
10003594:	3044      	adds	r0, #68	; 0x44
10003596:	f7ff f9a1 	bl	100028dc <metal_io_init>
1000359a:	9b05      	ldr	r3, [sp, #20]
1000359c:	689a      	ldr	r2, [r3, #8]
1000359e:	2a01      	cmp	r2, #1
100035a0:	4a2c      	ldr	r2, [pc, #176]	; (10003654 <MX_OPENAMP_Init+0x158>)
100035a2:	d801      	bhi.n	100035a8 <MX_OPENAMP_Init+0xac>
100035a4:	6014      	str	r4, [r2, #0]
100035a6:	e7df      	b.n	10003568 <MX_OPENAMP_Init+0x6c>
100035a8:	3344      	adds	r3, #68	; 0x44
100035aa:	6013      	str	r3, [r2, #0]
100035ac:	492a      	ldr	r1, [pc, #168]	; (10003658 <MX_OPENAMP_Init+0x15c>)
100035ae:	f8d9 2000 	ldr.w	r2, [r9]
100035b2:	9402      	str	r4, [sp, #8]
100035b4:	e9cd 4100 	strd	r4, r1, [sp]
100035b8:	4630      	mov	r0, r6
100035ba:	3218      	adds	r2, #24
100035bc:	21ff      	movs	r1, #255	; 0xff
100035be:	f7ff fad5 	bl	10002b6c <rproc_virtio_create_vdev>
100035c2:	4606      	mov	r6, r0
100035c4:	2800      	cmp	r0, #0
100035c6:	d0cf      	beq.n	10003568 <MX_OPENAMP_Init+0x6c>
100035c8:	f7ff fb51 	bl	10002c6e <rproc_virtio_wait_remote_ready>
100035cc:	f8d9 1000 	ldr.w	r1, [r9]
100035d0:	6b88      	ldr	r0, [r1, #56]	; 0x38
100035d2:	6b4b      	ldr	r3, [r1, #52]	; 0x34
100035d4:	6c0a      	ldr	r2, [r1, #64]	; 0x40
100035d6:	9002      	str	r0, [sp, #8]
100035d8:	6bc9      	ldr	r1, [r1, #60]	; 0x3c
100035da:	9101      	str	r1, [sp, #4]
100035dc:	6839      	ldr	r1, [r7, #0]
100035de:	9100      	str	r1, [sp, #0]
100035e0:	4630      	mov	r0, r6
100035e2:	4621      	mov	r1, r4
100035e4:	f7ff fb2e 	bl	10002c44 <rproc_virtio_init_vring>
100035e8:	4604      	mov	r4, r0
100035ea:	b9f0      	cbnz	r0, 1000362a <MX_OPENAMP_Init+0x12e>
100035ec:	f8d9 1000 	ldr.w	r1, [r9]
100035f0:	6cc8      	ldr	r0, [r1, #76]	; 0x4c
100035f2:	6c8b      	ldr	r3, [r1, #72]	; 0x48
100035f4:	6d4a      	ldr	r2, [r1, #84]	; 0x54
100035f6:	9002      	str	r0, [sp, #8]
100035f8:	6d09      	ldr	r1, [r1, #80]	; 0x50
100035fa:	9101      	str	r1, [sp, #4]
100035fc:	6839      	ldr	r1, [r7, #0]
100035fe:	9100      	str	r1, [sp, #0]
10003600:	4630      	mov	r0, r6
10003602:	2101      	movs	r1, #1
10003604:	f7ff fb1e 	bl	10002c44 <rproc_virtio_init_vring>
10003608:	4604      	mov	r4, r0
1000360a:	b970      	cbnz	r0, 1000362a <MX_OPENAMP_Init+0x12e>
1000360c:	f8df 9054 	ldr.w	r9, [pc, #84]	; 10003664 <MX_OPENAMP_Init+0x168>
10003610:	4642      	mov	r2, r8
10003612:	4629      	mov	r1, r5
10003614:	4648      	mov	r0, r9
10003616:	f7ff fd6d 	bl	100030f4 <rpmsg_virtio_init_shm_pool>
1000361a:	683b      	ldr	r3, [r7, #0]
1000361c:	480f      	ldr	r0, [pc, #60]	; (1000365c <MX_OPENAMP_Init+0x160>)
1000361e:	f8cd 9000 	str.w	r9, [sp]
10003622:	4652      	mov	r2, sl
10003624:	4631      	mov	r1, r6
10003626:	f7ff fd6b 	bl	10003100 <rpmsg_init_vdev>
1000362a:	4620      	mov	r0, r4
1000362c:	b00a      	add	sp, #40	; 0x28
1000362e:	e8bd 87f0 	ldmia.w	sp!, {r4, r5, r6, r7, r8, r9, sl, pc}
10003632:	bf00      	nop
10003634:	100047b4 	.word	0x100047b4
10003638:	10020038 	.word	0x10020038
1000363c:	10004a29 	.word	0x10004a29
10003640:	100047cf 	.word	0x100047cf
10003644:	100202d4 	.word	0x100202d4
10003648:	10040000 	.word	0x10040000
1000364c:	10050000 	.word	0x10050000
10003650:	100202d0 	.word	0x100202d0
10003654:	1002023c 	.word	0x1002023c
10003658:	100034b9 	.word	0x100034b9
1000365c:	10020244 	.word	0x10020244
10003660:	10020240 	.word	0x10020240
10003664:	100202d8 	.word	0x100202d8

10003668 <resource_table_init>:
10003668:	238c      	movs	r3, #140	; 0x8c
1000366a:	6013      	str	r3, [r2, #0]
1000366c:	4b01      	ldr	r3, [pc, #4]	; (10003674 <resource_table_init+0xc>)
1000366e:	600b      	str	r3, [r1, #0]
10003670:	4770      	bx	lr
10003672:	bf00      	nop
10003674:	10020128 	.word	0x10020128

10003678 <__assert_func>:
10003678:	b51f      	push	{r0, r1, r2, r3, r4, lr}
1000367a:	4614      	mov	r4, r2
1000367c:	461a      	mov	r2, r3
1000367e:	4b09      	ldr	r3, [pc, #36]	; (100036a4 <__assert_func+0x2c>)
10003680:	681b      	ldr	r3, [r3, #0]
10003682:	4605      	mov	r5, r0
10003684:	68d8      	ldr	r0, [r3, #12]
10003686:	b14c      	cbz	r4, 1000369c <__assert_func+0x24>
10003688:	4b07      	ldr	r3, [pc, #28]	; (100036a8 <__assert_func+0x30>)
1000368a:	9100      	str	r1, [sp, #0]
1000368c:	e9cd 3401 	strd	r3, r4, [sp, #4]
10003690:	4906      	ldr	r1, [pc, #24]	; (100036ac <__assert_func+0x34>)
10003692:	462b      	mov	r3, r5
10003694:	f000 f814 	bl	100036c0 <fiprintf>
10003698:	f000 fd34 	bl	10004104 <abort>
1000369c:	4b04      	ldr	r3, [pc, #16]	; (100036b0 <__assert_func+0x38>)
1000369e:	461c      	mov	r4, r3
100036a0:	e7f3      	b.n	1000368a <__assert_func+0x12>
100036a2:	bf00      	nop
100036a4:	100200c4 	.word	0x100200c4
100036a8:	10004a33 	.word	0x10004a33
100036ac:	10004a40 	.word	0x10004a40
100036b0:	10004a6e 	.word	0x10004a6e

100036b4 <__errno>:
100036b4:	4b01      	ldr	r3, [pc, #4]	; (100036bc <__errno+0x8>)
100036b6:	6818      	ldr	r0, [r3, #0]
100036b8:	4770      	bx	lr
100036ba:	bf00      	nop
100036bc:	100200c4 	.word	0x100200c4

100036c0 <fiprintf>:
100036c0:	b40e      	push	{r1, r2, r3}
100036c2:	b503      	push	{r0, r1, lr}
100036c4:	4601      	mov	r1, r0
100036c6:	ab03      	add	r3, sp, #12
100036c8:	4805      	ldr	r0, [pc, #20]	; (100036e0 <fiprintf+0x20>)
100036ca:	f853 2b04 	ldr.w	r2, [r3], #4
100036ce:	6800      	ldr	r0, [r0, #0]
100036d0:	9301      	str	r3, [sp, #4]
100036d2:	f000 f95b 	bl	1000398c <_vfiprintf_r>
100036d6:	b002      	add	sp, #8
100036d8:	f85d eb04 	ldr.w	lr, [sp], #4
100036dc:	b003      	add	sp, #12
100036de:	4770      	bx	lr
100036e0:	100200c4 	.word	0x100200c4

100036e4 <__libc_init_array>:
100036e4:	b570      	push	{r4, r5, r6, lr}
100036e6:	4d0d      	ldr	r5, [pc, #52]	; (1000371c <__libc_init_array+0x38>)
100036e8:	4c0d      	ldr	r4, [pc, #52]	; (10003720 <__libc_init_array+0x3c>)
100036ea:	1b64      	subs	r4, r4, r5
100036ec:	10a4      	asrs	r4, r4, #2
100036ee:	2600      	movs	r6, #0
100036f0:	42a6      	cmp	r6, r4
100036f2:	d109      	bne.n	10003708 <__libc_init_array+0x24>
100036f4:	4d0b      	ldr	r5, [pc, #44]	; (10003724 <__libc_init_array+0x40>)
100036f6:	4c0c      	ldr	r4, [pc, #48]	; (10003728 <__libc_init_array+0x44>)
100036f8:	f001 f828 	bl	1000474c <_init>
100036fc:	1b64      	subs	r4, r4, r5
100036fe:	10a4      	asrs	r4, r4, #2
10003700:	2600      	movs	r6, #0
10003702:	42a6      	cmp	r6, r4
10003704:	d105      	bne.n	10003712 <__libc_init_array+0x2e>
10003706:	bd70      	pop	{r4, r5, r6, pc}
10003708:	f855 3b04 	ldr.w	r3, [r5], #4
1000370c:	4798      	blx	r3
1000370e:	3601      	adds	r6, #1
10003710:	e7ee      	b.n	100036f0 <__libc_init_array+0xc>
10003712:	f855 3b04 	ldr.w	r3, [r5], #4
10003716:	4798      	blx	r3
10003718:	3601      	adds	r6, #1
1000371a:	e7f2      	b.n	10003702 <__libc_init_array+0x1e>
1000371c:	10004b08 	.word	0x10004b08
10003720:	10004b08 	.word	0x10004b08
10003724:	10004b08 	.word	0x10004b08
10003728:	10004b0c 	.word	0x10004b0c

1000372c <malloc>:
1000372c:	4b02      	ldr	r3, [pc, #8]	; (10003738 <malloc+0xc>)
1000372e:	4601      	mov	r1, r0
10003730:	6818      	ldr	r0, [r3, #0]
10003732:	f000 b88d 	b.w	10003850 <_malloc_r>
10003736:	bf00      	nop
10003738:	100200c4 	.word	0x100200c4

1000373c <free>:
1000373c:	4b02      	ldr	r3, [pc, #8]	; (10003748 <free+0xc>)
1000373e:	4601      	mov	r1, r0
10003740:	6818      	ldr	r0, [r3, #0]
10003742:	f000 b819 	b.w	10003778 <_free_r>
10003746:	bf00      	nop
10003748:	100200c4 	.word	0x100200c4

1000374c <memcpy>:
1000374c:	440a      	add	r2, r1
1000374e:	4291      	cmp	r1, r2
10003750:	f100 33ff 	add.w	r3, r0, #4294967295
10003754:	d100      	bne.n	10003758 <memcpy+0xc>
10003756:	4770      	bx	lr
10003758:	b510      	push	{r4, lr}
1000375a:	f811 4b01 	ldrb.w	r4, [r1], #1
1000375e:	f803 4f01 	strb.w	r4, [r3, #1]!
10003762:	4291      	cmp	r1, r2
10003764:	d1f9      	bne.n	1000375a <memcpy+0xe>
10003766:	bd10      	pop	{r4, pc}

10003768 <memset>:
10003768:	4402      	add	r2, r0
1000376a:	4603      	mov	r3, r0
1000376c:	4293      	cmp	r3, r2
1000376e:	d100      	bne.n	10003772 <memset+0xa>
10003770:	4770      	bx	lr
10003772:	f803 1b01 	strb.w	r1, [r3], #1
10003776:	e7f9      	b.n	1000376c <memset+0x4>

10003778 <_free_r>:
10003778:	b537      	push	{r0, r1, r2, r4, r5, lr}
1000377a:	2900      	cmp	r1, #0
1000377c:	d044      	beq.n	10003808 <_free_r+0x90>
1000377e:	f851 3c04 	ldr.w	r3, [r1, #-4]
10003782:	9001      	str	r0, [sp, #4]
10003784:	2b00      	cmp	r3, #0
10003786:	f1a1 0404 	sub.w	r4, r1, #4
1000378a:	bfb8      	it	lt
1000378c:	18e4      	addlt	r4, r4, r3
1000378e:	f000 fee1 	bl	10004554 <__malloc_lock>
10003792:	4a1e      	ldr	r2, [pc, #120]	; (1000380c <_free_r+0x94>)
10003794:	9801      	ldr	r0, [sp, #4]
10003796:	6813      	ldr	r3, [r2, #0]
10003798:	b933      	cbnz	r3, 100037a8 <_free_r+0x30>
1000379a:	6063      	str	r3, [r4, #4]
1000379c:	6014      	str	r4, [r2, #0]
1000379e:	b003      	add	sp, #12
100037a0:	e8bd 4030 	ldmia.w	sp!, {r4, r5, lr}
100037a4:	f000 bedc 	b.w	10004560 <__malloc_unlock>
100037a8:	42a3      	cmp	r3, r4
100037aa:	d908      	bls.n	100037be <_free_r+0x46>
100037ac:	6825      	ldr	r5, [r4, #0]
100037ae:	1961      	adds	r1, r4, r5
100037b0:	428b      	cmp	r3, r1
100037b2:	bf01      	itttt	eq
100037b4:	6819      	ldreq	r1, [r3, #0]
100037b6:	685b      	ldreq	r3, [r3, #4]
100037b8:	1949      	addeq	r1, r1, r5
100037ba:	6021      	streq	r1, [r4, #0]
100037bc:	e7ed      	b.n	1000379a <_free_r+0x22>
100037be:	461a      	mov	r2, r3
100037c0:	685b      	ldr	r3, [r3, #4]
100037c2:	b10b      	cbz	r3, 100037c8 <_free_r+0x50>
100037c4:	42a3      	cmp	r3, r4
100037c6:	d9fa      	bls.n	100037be <_free_r+0x46>
100037c8:	6811      	ldr	r1, [r2, #0]
100037ca:	1855      	adds	r5, r2, r1
100037cc:	42a5      	cmp	r5, r4
100037ce:	d10b      	bne.n	100037e8 <_free_r+0x70>
100037d0:	6824      	ldr	r4, [r4, #0]
100037d2:	4421      	add	r1, r4
100037d4:	1854      	adds	r4, r2, r1
100037d6:	42a3      	cmp	r3, r4
100037d8:	6011      	str	r1, [r2, #0]
100037da:	d1e0      	bne.n	1000379e <_free_r+0x26>
100037dc:	681c      	ldr	r4, [r3, #0]
100037de:	685b      	ldr	r3, [r3, #4]
100037e0:	6053      	str	r3, [r2, #4]
100037e2:	4421      	add	r1, r4
100037e4:	6011      	str	r1, [r2, #0]
100037e6:	e7da      	b.n	1000379e <_free_r+0x26>
100037e8:	d902      	bls.n	100037f0 <_free_r+0x78>
100037ea:	230c      	movs	r3, #12
100037ec:	6003      	str	r3, [r0, #0]
100037ee:	e7d6      	b.n	1000379e <_free_r+0x26>
100037f0:	6825      	ldr	r5, [r4, #0]
100037f2:	1961      	adds	r1, r4, r5
100037f4:	428b      	cmp	r3, r1
100037f6:	bf04      	itt	eq
100037f8:	6819      	ldreq	r1, [r3, #0]
100037fa:	685b      	ldreq	r3, [r3, #4]
100037fc:	6063      	str	r3, [r4, #4]
100037fe:	bf04      	itt	eq
10003800:	1949      	addeq	r1, r1, r5
10003802:	6021      	streq	r1, [r4, #0]
10003804:	6054      	str	r4, [r2, #4]
10003806:	e7ca      	b.n	1000379e <_free_r+0x26>
10003808:	b003      	add	sp, #12
1000380a:	bd30      	pop	{r4, r5, pc}
1000380c:	100202e4 	.word	0x100202e4

10003810 <sbrk_aligned>:
10003810:	b570      	push	{r4, r5, r6, lr}
10003812:	4e0e      	ldr	r6, [pc, #56]	; (1000384c <sbrk_aligned+0x3c>)
10003814:	460c      	mov	r4, r1
10003816:	6831      	ldr	r1, [r6, #0]
10003818:	4605      	mov	r5, r0
1000381a:	b911      	cbnz	r1, 10003822 <sbrk_aligned+0x12>
1000381c:	f000 fb7a 	bl	10003f14 <_sbrk_r>
10003820:	6030      	str	r0, [r6, #0]
10003822:	4621      	mov	r1, r4
10003824:	4628      	mov	r0, r5
10003826:	f000 fb75 	bl	10003f14 <_sbrk_r>
1000382a:	1c43      	adds	r3, r0, #1
1000382c:	d00a      	beq.n	10003844 <sbrk_aligned+0x34>
1000382e:	1cc4      	adds	r4, r0, #3
10003830:	f024 0403 	bic.w	r4, r4, #3
10003834:	42a0      	cmp	r0, r4
10003836:	d007      	beq.n	10003848 <sbrk_aligned+0x38>
10003838:	1a21      	subs	r1, r4, r0
1000383a:	4628      	mov	r0, r5
1000383c:	f000 fb6a 	bl	10003f14 <_sbrk_r>
10003840:	3001      	adds	r0, #1
10003842:	d101      	bne.n	10003848 <sbrk_aligned+0x38>
10003844:	f04f 34ff 	mov.w	r4, #4294967295
10003848:	4620      	mov	r0, r4
1000384a:	bd70      	pop	{r4, r5, r6, pc}
1000384c:	100202e8 	.word	0x100202e8

10003850 <_malloc_r>:
10003850:	e92d 41f0 	stmdb	sp!, {r4, r5, r6, r7, r8, lr}
10003854:	1ccd      	adds	r5, r1, #3
10003856:	f025 0503 	bic.w	r5, r5, #3
1000385a:	3508      	adds	r5, #8
1000385c:	2d0c      	cmp	r5, #12
1000385e:	bf38      	it	cc
10003860:	250c      	movcc	r5, #12
10003862:	2d00      	cmp	r5, #0
10003864:	4607      	mov	r7, r0
10003866:	db01      	blt.n	1000386c <_malloc_r+0x1c>
10003868:	42a9      	cmp	r1, r5
1000386a:	d905      	bls.n	10003878 <_malloc_r+0x28>
1000386c:	230c      	movs	r3, #12
1000386e:	603b      	str	r3, [r7, #0]
10003870:	2600      	movs	r6, #0
10003872:	4630      	mov	r0, r6
10003874:	e8bd 81f0 	ldmia.w	sp!, {r4, r5, r6, r7, r8, pc}
10003878:	4e2e      	ldr	r6, [pc, #184]	; (10003934 <_malloc_r+0xe4>)
1000387a:	f000 fe6b 	bl	10004554 <__malloc_lock>
1000387e:	6833      	ldr	r3, [r6, #0]
10003880:	461c      	mov	r4, r3
10003882:	bb34      	cbnz	r4, 100038d2 <_malloc_r+0x82>
10003884:	4629      	mov	r1, r5
10003886:	4638      	mov	r0, r7
10003888:	f7ff ffc2 	bl	10003810 <sbrk_aligned>
1000388c:	1c43      	adds	r3, r0, #1
1000388e:	4604      	mov	r4, r0
10003890:	d14d      	bne.n	1000392e <_malloc_r+0xde>
10003892:	6834      	ldr	r4, [r6, #0]
10003894:	4626      	mov	r6, r4
10003896:	2e00      	cmp	r6, #0
10003898:	d140      	bne.n	1000391c <_malloc_r+0xcc>
1000389a:	6823      	ldr	r3, [r4, #0]
1000389c:	4631      	mov	r1, r6
1000389e:	4638      	mov	r0, r7
100038a0:	eb04 0803 	add.w	r8, r4, r3
100038a4:	f000 fb36 	bl	10003f14 <_sbrk_r>
100038a8:	4580      	cmp	r8, r0
100038aa:	d13a      	bne.n	10003922 <_malloc_r+0xd2>
100038ac:	6821      	ldr	r1, [r4, #0]
100038ae:	3503      	adds	r5, #3
100038b0:	1a6d      	subs	r5, r5, r1
100038b2:	f025 0503 	bic.w	r5, r5, #3
100038b6:	3508      	adds	r5, #8
100038b8:	2d0c      	cmp	r5, #12
100038ba:	bf38      	it	cc
100038bc:	250c      	movcc	r5, #12
100038be:	4629      	mov	r1, r5
100038c0:	4638      	mov	r0, r7
100038c2:	f7ff ffa5 	bl	10003810 <sbrk_aligned>
100038c6:	3001      	adds	r0, #1
100038c8:	d02b      	beq.n	10003922 <_malloc_r+0xd2>
100038ca:	6823      	ldr	r3, [r4, #0]
100038cc:	442b      	add	r3, r5
100038ce:	6023      	str	r3, [r4, #0]
100038d0:	e00e      	b.n	100038f0 <_malloc_r+0xa0>
100038d2:	6822      	ldr	r2, [r4, #0]
100038d4:	1b52      	subs	r2, r2, r5
100038d6:	d41e      	bmi.n	10003916 <_malloc_r+0xc6>
100038d8:	2a0b      	cmp	r2, #11
100038da:	d916      	bls.n	1000390a <_malloc_r+0xba>
100038dc:	1961      	adds	r1, r4, r5
100038de:	42a3      	cmp	r3, r4
100038e0:	6025      	str	r5, [r4, #0]
100038e2:	bf18      	it	ne
100038e4:	6059      	strne	r1, [r3, #4]
100038e6:	6863      	ldr	r3, [r4, #4]
100038e8:	bf08      	it	eq
100038ea:	6031      	streq	r1, [r6, #0]
100038ec:	5162      	str	r2, [r4, r5]
100038ee:	604b      	str	r3, [r1, #4]
100038f0:	4638      	mov	r0, r7
100038f2:	f104 060b 	add.w	r6, r4, #11
100038f6:	f000 fe33 	bl	10004560 <__malloc_unlock>
100038fa:	f026 0607 	bic.w	r6, r6, #7
100038fe:	1d23      	adds	r3, r4, #4
10003900:	1af2      	subs	r2, r6, r3
10003902:	d0b6      	beq.n	10003872 <_malloc_r+0x22>
10003904:	1b9b      	subs	r3, r3, r6
10003906:	50a3      	str	r3, [r4, r2]
10003908:	e7b3      	b.n	10003872 <_malloc_r+0x22>
1000390a:	6862      	ldr	r2, [r4, #4]
1000390c:	42a3      	cmp	r3, r4
1000390e:	bf0c      	ite	eq
10003910:	6032      	streq	r2, [r6, #0]
10003912:	605a      	strne	r2, [r3, #4]
10003914:	e7ec      	b.n	100038f0 <_malloc_r+0xa0>
10003916:	4623      	mov	r3, r4
10003918:	6864      	ldr	r4, [r4, #4]
1000391a:	e7b2      	b.n	10003882 <_malloc_r+0x32>
1000391c:	4634      	mov	r4, r6
1000391e:	6876      	ldr	r6, [r6, #4]
10003920:	e7b9      	b.n	10003896 <_malloc_r+0x46>
10003922:	230c      	movs	r3, #12
10003924:	603b      	str	r3, [r7, #0]
10003926:	4638      	mov	r0, r7
10003928:	f000 fe1a 	bl	10004560 <__malloc_unlock>
1000392c:	e7a1      	b.n	10003872 <_malloc_r+0x22>
1000392e:	6025      	str	r5, [r4, #0]
10003930:	e7de      	b.n	100038f0 <_malloc_r+0xa0>
10003932:	bf00      	nop
10003934:	100202e4 	.word	0x100202e4

10003938 <__sfputc_r>:
10003938:	6893      	ldr	r3, [r2, #8]
1000393a:	3b01      	subs	r3, #1
1000393c:	2b00      	cmp	r3, #0
1000393e:	b410      	push	{r4}
10003940:	6093      	str	r3, [r2, #8]
10003942:	da08      	bge.n	10003956 <__sfputc_r+0x1e>
10003944:	6994      	ldr	r4, [r2, #24]
10003946:	42a3      	cmp	r3, r4
10003948:	db01      	blt.n	1000394e <__sfputc_r+0x16>
1000394a:	290a      	cmp	r1, #10
1000394c:	d103      	bne.n	10003956 <__sfputc_r+0x1e>
1000394e:	f85d 4b04 	ldr.w	r4, [sp], #4
10003952:	f000 bb17 	b.w	10003f84 <__swbuf_r>
10003956:	6813      	ldr	r3, [r2, #0]
10003958:	1c58      	adds	r0, r3, #1
1000395a:	6010      	str	r0, [r2, #0]
1000395c:	7019      	strb	r1, [r3, #0]
1000395e:	4608      	mov	r0, r1
10003960:	f85d 4b04 	ldr.w	r4, [sp], #4
10003964:	4770      	bx	lr

10003966 <__sfputs_r>:
10003966:	b5f8      	push	{r3, r4, r5, r6, r7, lr}
10003968:	4606      	mov	r6, r0
1000396a:	460f      	mov	r7, r1
1000396c:	4614      	mov	r4, r2
1000396e:	18d5      	adds	r5, r2, r3
10003970:	42ac      	cmp	r4, r5
10003972:	d101      	bne.n	10003978 <__sfputs_r+0x12>
10003974:	2000      	movs	r0, #0
10003976:	e007      	b.n	10003988 <__sfputs_r+0x22>
10003978:	f814 1b01 	ldrb.w	r1, [r4], #1
1000397c:	463a      	mov	r2, r7
1000397e:	4630      	mov	r0, r6
10003980:	f7ff ffda 	bl	10003938 <__sfputc_r>
10003984:	1c43      	adds	r3, r0, #1
10003986:	d1f3      	bne.n	10003970 <__sfputs_r+0xa>
10003988:	bdf8      	pop	{r3, r4, r5, r6, r7, pc}
	...

1000398c <_vfiprintf_r>:
1000398c:	e92d 4ff0 	stmdb	sp!, {r4, r5, r6, r7, r8, r9, sl, fp, lr}
10003990:	460d      	mov	r5, r1
10003992:	b09d      	sub	sp, #116	; 0x74
10003994:	4614      	mov	r4, r2
10003996:	4698      	mov	r8, r3
10003998:	4606      	mov	r6, r0
1000399a:	b118      	cbz	r0, 100039a4 <_vfiprintf_r+0x18>
1000399c:	6983      	ldr	r3, [r0, #24]
1000399e:	b90b      	cbnz	r3, 100039a4 <_vfiprintf_r+0x18>
100039a0:	f000 fcd2 	bl	10004348 <__sinit>
100039a4:	4b89      	ldr	r3, [pc, #548]	; (10003bcc <_vfiprintf_r+0x240>)
100039a6:	429d      	cmp	r5, r3
100039a8:	d11b      	bne.n	100039e2 <_vfiprintf_r+0x56>
100039aa:	6875      	ldr	r5, [r6, #4]
100039ac:	6e6b      	ldr	r3, [r5, #100]	; 0x64
100039ae:	07d9      	lsls	r1, r3, #31
100039b0:	d405      	bmi.n	100039be <_vfiprintf_r+0x32>
100039b2:	89ab      	ldrh	r3, [r5, #12]
100039b4:	059a      	lsls	r2, r3, #22
100039b6:	d402      	bmi.n	100039be <_vfiprintf_r+0x32>
100039b8:	6da8      	ldr	r0, [r5, #88]	; 0x58
100039ba:	f000 fd63 	bl	10004484 <__retarget_lock_acquire_recursive>
100039be:	89ab      	ldrh	r3, [r5, #12]
100039c0:	071b      	lsls	r3, r3, #28
100039c2:	d501      	bpl.n	100039c8 <_vfiprintf_r+0x3c>
100039c4:	692b      	ldr	r3, [r5, #16]
100039c6:	b9eb      	cbnz	r3, 10003a04 <_vfiprintf_r+0x78>
100039c8:	4629      	mov	r1, r5
100039ca:	4630      	mov	r0, r6
100039cc:	f000 fb2c 	bl	10004028 <__swsetup_r>
100039d0:	b1c0      	cbz	r0, 10003a04 <_vfiprintf_r+0x78>
100039d2:	6e6b      	ldr	r3, [r5, #100]	; 0x64
100039d4:	07dc      	lsls	r4, r3, #31
100039d6:	d50e      	bpl.n	100039f6 <_vfiprintf_r+0x6a>
100039d8:	f04f 30ff 	mov.w	r0, #4294967295
100039dc:	b01d      	add	sp, #116	; 0x74
100039de:	e8bd 8ff0 	ldmia.w	sp!, {r4, r5, r6, r7, r8, r9, sl, fp, pc}
100039e2:	4b7b      	ldr	r3, [pc, #492]	; (10003bd0 <_vfiprintf_r+0x244>)
100039e4:	429d      	cmp	r5, r3
100039e6:	d101      	bne.n	100039ec <_vfiprintf_r+0x60>
100039e8:	68b5      	ldr	r5, [r6, #8]
100039ea:	e7df      	b.n	100039ac <_vfiprintf_r+0x20>
100039ec:	4b79      	ldr	r3, [pc, #484]	; (10003bd4 <_vfiprintf_r+0x248>)
100039ee:	429d      	cmp	r5, r3
100039f0:	bf08      	it	eq
100039f2:	68f5      	ldreq	r5, [r6, #12]
100039f4:	e7da      	b.n	100039ac <_vfiprintf_r+0x20>
100039f6:	89ab      	ldrh	r3, [r5, #12]
100039f8:	0598      	lsls	r0, r3, #22
100039fa:	d4ed      	bmi.n	100039d8 <_vfiprintf_r+0x4c>
100039fc:	6da8      	ldr	r0, [r5, #88]	; 0x58
100039fe:	f000 fd42 	bl	10004486 <__retarget_lock_release_recursive>
10003a02:	e7e9      	b.n	100039d8 <_vfiprintf_r+0x4c>
10003a04:	2300      	movs	r3, #0
10003a06:	9309      	str	r3, [sp, #36]	; 0x24
10003a08:	2320      	movs	r3, #32
10003a0a:	f88d 3029 	strb.w	r3, [sp, #41]	; 0x29
10003a0e:	f8cd 800c 	str.w	r8, [sp, #12]
10003a12:	2330      	movs	r3, #48	; 0x30
10003a14:	f8df 81c0 	ldr.w	r8, [pc, #448]	; 10003bd8 <_vfiprintf_r+0x24c>
10003a18:	f88d 302a 	strb.w	r3, [sp, #42]	; 0x2a
10003a1c:	f04f 0901 	mov.w	r9, #1
10003a20:	4623      	mov	r3, r4
10003a22:	469a      	mov	sl, r3
10003a24:	f813 2b01 	ldrb.w	r2, [r3], #1
10003a28:	b10a      	cbz	r2, 10003a2e <_vfiprintf_r+0xa2>
10003a2a:	2a25      	cmp	r2, #37	; 0x25
10003a2c:	d1f9      	bne.n	10003a22 <_vfiprintf_r+0x96>
10003a2e:	ebba 0b04 	subs.w	fp, sl, r4
10003a32:	d00b      	beq.n	10003a4c <_vfiprintf_r+0xc0>
10003a34:	465b      	mov	r3, fp
10003a36:	4622      	mov	r2, r4
10003a38:	4629      	mov	r1, r5
10003a3a:	4630      	mov	r0, r6
10003a3c:	f7ff ff93 	bl	10003966 <__sfputs_r>
10003a40:	3001      	adds	r0, #1
10003a42:	f000 80aa 	beq.w	10003b9a <_vfiprintf_r+0x20e>
10003a46:	9a09      	ldr	r2, [sp, #36]	; 0x24
10003a48:	445a      	add	r2, fp
10003a4a:	9209      	str	r2, [sp, #36]	; 0x24
10003a4c:	f89a 3000 	ldrb.w	r3, [sl]
10003a50:	2b00      	cmp	r3, #0
10003a52:	f000 80a2 	beq.w	10003b9a <_vfiprintf_r+0x20e>
10003a56:	2300      	movs	r3, #0
10003a58:	f04f 32ff 	mov.w	r2, #4294967295
10003a5c:	e9cd 2305 	strd	r2, r3, [sp, #20]
10003a60:	f10a 0a01 	add.w	sl, sl, #1
10003a64:	9304      	str	r3, [sp, #16]
10003a66:	9307      	str	r3, [sp, #28]
10003a68:	f88d 3053 	strb.w	r3, [sp, #83]	; 0x53
10003a6c:	931a      	str	r3, [sp, #104]	; 0x68
10003a6e:	4654      	mov	r4, sl
10003a70:	2205      	movs	r2, #5
10003a72:	f814 1b01 	ldrb.w	r1, [r4], #1
10003a76:	4858      	ldr	r0, [pc, #352]	; (10003bd8 <_vfiprintf_r+0x24c>)
10003a78:	f7fc faf2 	bl	10000060 <memchr>
10003a7c:	9a04      	ldr	r2, [sp, #16]
10003a7e:	b9d8      	cbnz	r0, 10003ab8 <_vfiprintf_r+0x12c>
10003a80:	06d1      	lsls	r1, r2, #27
10003a82:	bf44      	itt	mi
10003a84:	2320      	movmi	r3, #32
10003a86:	f88d 3053 	strbmi.w	r3, [sp, #83]	; 0x53
10003a8a:	0713      	lsls	r3, r2, #28
10003a8c:	bf44      	itt	mi
10003a8e:	232b      	movmi	r3, #43	; 0x2b
10003a90:	f88d 3053 	strbmi.w	r3, [sp, #83]	; 0x53
10003a94:	f89a 3000 	ldrb.w	r3, [sl]
10003a98:	2b2a      	cmp	r3, #42	; 0x2a
10003a9a:	d015      	beq.n	10003ac8 <_vfiprintf_r+0x13c>
10003a9c:	9a07      	ldr	r2, [sp, #28]
10003a9e:	4654      	mov	r4, sl
10003aa0:	2000      	movs	r0, #0
10003aa2:	f04f 0c0a 	mov.w	ip, #10
10003aa6:	4621      	mov	r1, r4
10003aa8:	f811 3b01 	ldrb.w	r3, [r1], #1
10003aac:	3b30      	subs	r3, #48	; 0x30
10003aae:	2b09      	cmp	r3, #9
10003ab0:	d94e      	bls.n	10003b50 <_vfiprintf_r+0x1c4>
10003ab2:	b1b0      	cbz	r0, 10003ae2 <_vfiprintf_r+0x156>
10003ab4:	9207      	str	r2, [sp, #28]
10003ab6:	e014      	b.n	10003ae2 <_vfiprintf_r+0x156>
10003ab8:	eba0 0308 	sub.w	r3, r0, r8
10003abc:	fa09 f303 	lsl.w	r3, r9, r3
10003ac0:	4313      	orrs	r3, r2
10003ac2:	9304      	str	r3, [sp, #16]
10003ac4:	46a2      	mov	sl, r4
10003ac6:	e7d2      	b.n	10003a6e <_vfiprintf_r+0xe2>
10003ac8:	9b03      	ldr	r3, [sp, #12]
10003aca:	1d19      	adds	r1, r3, #4
10003acc:	681b      	ldr	r3, [r3, #0]
10003ace:	9103      	str	r1, [sp, #12]
10003ad0:	2b00      	cmp	r3, #0
10003ad2:	bfbb      	ittet	lt
10003ad4:	425b      	neglt	r3, r3
10003ad6:	f042 0202 	orrlt.w	r2, r2, #2
10003ada:	9307      	strge	r3, [sp, #28]
10003adc:	9307      	strlt	r3, [sp, #28]
10003ade:	bfb8      	it	lt
10003ae0:	9204      	strlt	r2, [sp, #16]
10003ae2:	7823      	ldrb	r3, [r4, #0]
10003ae4:	2b2e      	cmp	r3, #46	; 0x2e
10003ae6:	d10c      	bne.n	10003b02 <_vfiprintf_r+0x176>
10003ae8:	7863      	ldrb	r3, [r4, #1]
10003aea:	2b2a      	cmp	r3, #42	; 0x2a
10003aec:	d135      	bne.n	10003b5a <_vfiprintf_r+0x1ce>
10003aee:	9b03      	ldr	r3, [sp, #12]
10003af0:	1d1a      	adds	r2, r3, #4
10003af2:	681b      	ldr	r3, [r3, #0]
10003af4:	9203      	str	r2, [sp, #12]
10003af6:	2b00      	cmp	r3, #0
10003af8:	bfb8      	it	lt
10003afa:	f04f 33ff 	movlt.w	r3, #4294967295
10003afe:	3402      	adds	r4, #2
10003b00:	9305      	str	r3, [sp, #20]
10003b02:	f8df a0e4 	ldr.w	sl, [pc, #228]	; 10003be8 <_vfiprintf_r+0x25c>
10003b06:	7821      	ldrb	r1, [r4, #0]
10003b08:	2203      	movs	r2, #3
10003b0a:	4650      	mov	r0, sl
10003b0c:	f7fc faa8 	bl	10000060 <memchr>
10003b10:	b140      	cbz	r0, 10003b24 <_vfiprintf_r+0x198>
10003b12:	2340      	movs	r3, #64	; 0x40
10003b14:	eba0 000a 	sub.w	r0, r0, sl
10003b18:	fa03 f000 	lsl.w	r0, r3, r0
10003b1c:	9b04      	ldr	r3, [sp, #16]
10003b1e:	4303      	orrs	r3, r0
10003b20:	3401      	adds	r4, #1
10003b22:	9304      	str	r3, [sp, #16]
10003b24:	f814 1b01 	ldrb.w	r1, [r4], #1
10003b28:	482c      	ldr	r0, [pc, #176]	; (10003bdc <_vfiprintf_r+0x250>)
10003b2a:	f88d 1028 	strb.w	r1, [sp, #40]	; 0x28
10003b2e:	2206      	movs	r2, #6
10003b30:	f7fc fa96 	bl	10000060 <memchr>
10003b34:	2800      	cmp	r0, #0
10003b36:	d03f      	beq.n	10003bb8 <_vfiprintf_r+0x22c>
10003b38:	4b29      	ldr	r3, [pc, #164]	; (10003be0 <_vfiprintf_r+0x254>)
10003b3a:	bb1b      	cbnz	r3, 10003b84 <_vfiprintf_r+0x1f8>
10003b3c:	9b03      	ldr	r3, [sp, #12]
10003b3e:	3307      	adds	r3, #7
10003b40:	f023 0307 	bic.w	r3, r3, #7
10003b44:	3308      	adds	r3, #8
10003b46:	9303      	str	r3, [sp, #12]
10003b48:	9b09      	ldr	r3, [sp, #36]	; 0x24
10003b4a:	443b      	add	r3, r7
10003b4c:	9309      	str	r3, [sp, #36]	; 0x24
10003b4e:	e767      	b.n	10003a20 <_vfiprintf_r+0x94>
10003b50:	fb0c 3202 	mla	r2, ip, r2, r3
10003b54:	460c      	mov	r4, r1
10003b56:	2001      	movs	r0, #1
10003b58:	e7a5      	b.n	10003aa6 <_vfiprintf_r+0x11a>
10003b5a:	2300      	movs	r3, #0
10003b5c:	3401      	adds	r4, #1
10003b5e:	9305      	str	r3, [sp, #20]
10003b60:	4619      	mov	r1, r3
10003b62:	f04f 0c0a 	mov.w	ip, #10
10003b66:	4620      	mov	r0, r4
10003b68:	f810 2b01 	ldrb.w	r2, [r0], #1
10003b6c:	3a30      	subs	r2, #48	; 0x30
10003b6e:	2a09      	cmp	r2, #9
10003b70:	d903      	bls.n	10003b7a <_vfiprintf_r+0x1ee>
10003b72:	2b00      	cmp	r3, #0
10003b74:	d0c5      	beq.n	10003b02 <_vfiprintf_r+0x176>
10003b76:	9105      	str	r1, [sp, #20]
10003b78:	e7c3      	b.n	10003b02 <_vfiprintf_r+0x176>
10003b7a:	fb0c 2101 	mla	r1, ip, r1, r2
10003b7e:	4604      	mov	r4, r0
10003b80:	2301      	movs	r3, #1
10003b82:	e7f0      	b.n	10003b66 <_vfiprintf_r+0x1da>
10003b84:	ab03      	add	r3, sp, #12
10003b86:	9300      	str	r3, [sp, #0]
10003b88:	462a      	mov	r2, r5
10003b8a:	4b16      	ldr	r3, [pc, #88]	; (10003be4 <_vfiprintf_r+0x258>)
10003b8c:	a904      	add	r1, sp, #16
10003b8e:	4630      	mov	r0, r6
10003b90:	f3af 8000 	nop.w
10003b94:	4607      	mov	r7, r0
10003b96:	1c78      	adds	r0, r7, #1
10003b98:	d1d6      	bne.n	10003b48 <_vfiprintf_r+0x1bc>
10003b9a:	6e6b      	ldr	r3, [r5, #100]	; 0x64
10003b9c:	07d9      	lsls	r1, r3, #31
10003b9e:	d405      	bmi.n	10003bac <_vfiprintf_r+0x220>
10003ba0:	89ab      	ldrh	r3, [r5, #12]
10003ba2:	059a      	lsls	r2, r3, #22
10003ba4:	d402      	bmi.n	10003bac <_vfiprintf_r+0x220>
10003ba6:	6da8      	ldr	r0, [r5, #88]	; 0x58
10003ba8:	f000 fc6d 	bl	10004486 <__retarget_lock_release_recursive>
10003bac:	89ab      	ldrh	r3, [r5, #12]
10003bae:	065b      	lsls	r3, r3, #25
10003bb0:	f53f af12 	bmi.w	100039d8 <_vfiprintf_r+0x4c>
10003bb4:	9809      	ldr	r0, [sp, #36]	; 0x24
10003bb6:	e711      	b.n	100039dc <_vfiprintf_r+0x50>
10003bb8:	ab03      	add	r3, sp, #12
10003bba:	9300      	str	r3, [sp, #0]
10003bbc:	462a      	mov	r2, r5
10003bbe:	4b09      	ldr	r3, [pc, #36]	; (10003be4 <_vfiprintf_r+0x258>)
10003bc0:	a904      	add	r1, sp, #16
10003bc2:	4630      	mov	r0, r6
10003bc4:	f000 f880 	bl	10003cc8 <_printf_i>
10003bc8:	e7e4      	b.n	10003b94 <_vfiprintf_r+0x208>
10003bca:	bf00      	nop
10003bcc:	10004ac8 	.word	0x10004ac8
10003bd0:	10004ae8 	.word	0x10004ae8
10003bd4:	10004aa8 	.word	0x10004aa8
10003bd8:	10004a74 	.word	0x10004a74
10003bdc:	10004a7e 	.word	0x10004a7e
10003be0:	00000000 	.word	0x00000000
10003be4:	10003967 	.word	0x10003967
10003be8:	10004a7a 	.word	0x10004a7a

10003bec <_printf_common>:
10003bec:	e92d 47f0 	stmdb	sp!, {r4, r5, r6, r7, r8, r9, sl, lr}
10003bf0:	4616      	mov	r6, r2
10003bf2:	4699      	mov	r9, r3
10003bf4:	688a      	ldr	r2, [r1, #8]
10003bf6:	690b      	ldr	r3, [r1, #16]
10003bf8:	f8dd 8020 	ldr.w	r8, [sp, #32]
10003bfc:	4293      	cmp	r3, r2
10003bfe:	bfb8      	it	lt
10003c00:	4613      	movlt	r3, r2
10003c02:	6033      	str	r3, [r6, #0]
10003c04:	f891 2043 	ldrb.w	r2, [r1, #67]	; 0x43
10003c08:	4607      	mov	r7, r0
10003c0a:	460c      	mov	r4, r1
10003c0c:	b10a      	cbz	r2, 10003c12 <_printf_common+0x26>
10003c0e:	3301      	adds	r3, #1
10003c10:	6033      	str	r3, [r6, #0]
10003c12:	6823      	ldr	r3, [r4, #0]
10003c14:	0699      	lsls	r1, r3, #26
10003c16:	bf42      	ittt	mi
10003c18:	6833      	ldrmi	r3, [r6, #0]
10003c1a:	3302      	addmi	r3, #2
10003c1c:	6033      	strmi	r3, [r6, #0]
10003c1e:	6825      	ldr	r5, [r4, #0]
10003c20:	f015 0506 	ands.w	r5, r5, #6
10003c24:	d106      	bne.n	10003c34 <_printf_common+0x48>
10003c26:	f104 0a19 	add.w	sl, r4, #25
10003c2a:	68e3      	ldr	r3, [r4, #12]
10003c2c:	6832      	ldr	r2, [r6, #0]
10003c2e:	1a9b      	subs	r3, r3, r2
10003c30:	42ab      	cmp	r3, r5
10003c32:	dc26      	bgt.n	10003c82 <_printf_common+0x96>
10003c34:	f894 2043 	ldrb.w	r2, [r4, #67]	; 0x43
10003c38:	1e13      	subs	r3, r2, #0
10003c3a:	6822      	ldr	r2, [r4, #0]
10003c3c:	bf18      	it	ne
10003c3e:	2301      	movne	r3, #1
10003c40:	0692      	lsls	r2, r2, #26
10003c42:	d42b      	bmi.n	10003c9c <_printf_common+0xb0>
10003c44:	f104 0243 	add.w	r2, r4, #67	; 0x43
10003c48:	4649      	mov	r1, r9
10003c4a:	4638      	mov	r0, r7
10003c4c:	47c0      	blx	r8
10003c4e:	3001      	adds	r0, #1
10003c50:	d01e      	beq.n	10003c90 <_printf_common+0xa4>
10003c52:	6823      	ldr	r3, [r4, #0]
10003c54:	68e5      	ldr	r5, [r4, #12]
10003c56:	6832      	ldr	r2, [r6, #0]
10003c58:	f003 0306 	and.w	r3, r3, #6
10003c5c:	2b04      	cmp	r3, #4
10003c5e:	bf08      	it	eq
10003c60:	1aad      	subeq	r5, r5, r2
10003c62:	68a3      	ldr	r3, [r4, #8]
10003c64:	6922      	ldr	r2, [r4, #16]
10003c66:	bf0c      	ite	eq
10003c68:	ea25 75e5 	biceq.w	r5, r5, r5, asr #31
10003c6c:	2500      	movne	r5, #0
10003c6e:	4293      	cmp	r3, r2
10003c70:	bfc4      	itt	gt
10003c72:	1a9b      	subgt	r3, r3, r2
10003c74:	18ed      	addgt	r5, r5, r3
10003c76:	2600      	movs	r6, #0
10003c78:	341a      	adds	r4, #26
10003c7a:	42b5      	cmp	r5, r6
10003c7c:	d11a      	bne.n	10003cb4 <_printf_common+0xc8>
10003c7e:	2000      	movs	r0, #0
10003c80:	e008      	b.n	10003c94 <_printf_common+0xa8>
10003c82:	2301      	movs	r3, #1
10003c84:	4652      	mov	r2, sl
10003c86:	4649      	mov	r1, r9
10003c88:	4638      	mov	r0, r7
10003c8a:	47c0      	blx	r8
10003c8c:	3001      	adds	r0, #1
10003c8e:	d103      	bne.n	10003c98 <_printf_common+0xac>
10003c90:	f04f 30ff 	mov.w	r0, #4294967295
10003c94:	e8bd 87f0 	ldmia.w	sp!, {r4, r5, r6, r7, r8, r9, sl, pc}
10003c98:	3501      	adds	r5, #1
10003c9a:	e7c6      	b.n	10003c2a <_printf_common+0x3e>
10003c9c:	18e1      	adds	r1, r4, r3
10003c9e:	1c5a      	adds	r2, r3, #1
10003ca0:	2030      	movs	r0, #48	; 0x30
10003ca2:	f881 0043 	strb.w	r0, [r1, #67]	; 0x43
10003ca6:	4422      	add	r2, r4
10003ca8:	f894 1045 	ldrb.w	r1, [r4, #69]	; 0x45
10003cac:	f882 1043 	strb.w	r1, [r2, #67]	; 0x43
10003cb0:	3302      	adds	r3, #2
10003cb2:	e7c7      	b.n	10003c44 <_printf_common+0x58>
10003cb4:	2301      	movs	r3, #1
10003cb6:	4622      	mov	r2, r4
10003cb8:	4649      	mov	r1, r9
10003cba:	4638      	mov	r0, r7
10003cbc:	47c0      	blx	r8
10003cbe:	3001      	adds	r0, #1
10003cc0:	d0e6      	beq.n	10003c90 <_printf_common+0xa4>
10003cc2:	3601      	adds	r6, #1
10003cc4:	e7d9      	b.n	10003c7a <_printf_common+0x8e>
	...

10003cc8 <_printf_i>:
10003cc8:	e92d 47ff 	stmdb	sp!, {r0, r1, r2, r3, r4, r5, r6, r7, r8, r9, sl, lr}
10003ccc:	7e0f      	ldrb	r7, [r1, #24]
10003cce:	9d0c      	ldr	r5, [sp, #48]	; 0x30
10003cd0:	2f78      	cmp	r7, #120	; 0x78
10003cd2:	4691      	mov	r9, r2
10003cd4:	4680      	mov	r8, r0
10003cd6:	460c      	mov	r4, r1
10003cd8:	469a      	mov	sl, r3
10003cda:	f101 0243 	add.w	r2, r1, #67	; 0x43
10003cde:	d807      	bhi.n	10003cf0 <_printf_i+0x28>
10003ce0:	2f62      	cmp	r7, #98	; 0x62
10003ce2:	d80a      	bhi.n	10003cfa <_printf_i+0x32>
10003ce4:	2f00      	cmp	r7, #0
10003ce6:	f000 80d8 	beq.w	10003e9a <_printf_i+0x1d2>
10003cea:	2f58      	cmp	r7, #88	; 0x58
10003cec:	f000 80a3 	beq.w	10003e36 <_printf_i+0x16e>
10003cf0:	f104 0542 	add.w	r5, r4, #66	; 0x42
10003cf4:	f884 7042 	strb.w	r7, [r4, #66]	; 0x42
10003cf8:	e03a      	b.n	10003d70 <_printf_i+0xa8>
10003cfa:	f1a7 0363 	sub.w	r3, r7, #99	; 0x63
10003cfe:	2b15      	cmp	r3, #21
10003d00:	d8f6      	bhi.n	10003cf0 <_printf_i+0x28>
10003d02:	a101      	add	r1, pc, #4	; (adr r1, 10003d08 <_printf_i+0x40>)
10003d04:	f851 f023 	ldr.w	pc, [r1, r3, lsl #2]
10003d08:	10003d61 	.word	0x10003d61
10003d0c:	10003d75 	.word	0x10003d75
10003d10:	10003cf1 	.word	0x10003cf1
10003d14:	10003cf1 	.word	0x10003cf1
10003d18:	10003cf1 	.word	0x10003cf1
10003d1c:	10003cf1 	.word	0x10003cf1
10003d20:	10003d75 	.word	0x10003d75
10003d24:	10003cf1 	.word	0x10003cf1
10003d28:	10003cf1 	.word	0x10003cf1
10003d2c:	10003cf1 	.word	0x10003cf1
10003d30:	10003cf1 	.word	0x10003cf1
10003d34:	10003e81 	.word	0x10003e81
10003d38:	10003da5 	.word	0x10003da5
10003d3c:	10003e63 	.word	0x10003e63
10003d40:	10003cf1 	.word	0x10003cf1
10003d44:	10003cf1 	.word	0x10003cf1
10003d48:	10003ea3 	.word	0x10003ea3
10003d4c:	10003cf1 	.word	0x10003cf1
10003d50:	10003da5 	.word	0x10003da5
10003d54:	10003cf1 	.word	0x10003cf1
10003d58:	10003cf1 	.word	0x10003cf1
10003d5c:	10003e6b 	.word	0x10003e6b
10003d60:	682b      	ldr	r3, [r5, #0]
10003d62:	1d1a      	adds	r2, r3, #4
10003d64:	681b      	ldr	r3, [r3, #0]
10003d66:	602a      	str	r2, [r5, #0]
10003d68:	f104 0542 	add.w	r5, r4, #66	; 0x42
10003d6c:	f884 3042 	strb.w	r3, [r4, #66]	; 0x42
10003d70:	2301      	movs	r3, #1
10003d72:	e0a3      	b.n	10003ebc <_printf_i+0x1f4>
10003d74:	6820      	ldr	r0, [r4, #0]
10003d76:	6829      	ldr	r1, [r5, #0]
10003d78:	0606      	lsls	r6, r0, #24
10003d7a:	f101 0304 	add.w	r3, r1, #4
10003d7e:	d50a      	bpl.n	10003d96 <_printf_i+0xce>
10003d80:	680e      	ldr	r6, [r1, #0]
10003d82:	602b      	str	r3, [r5, #0]
10003d84:	2e00      	cmp	r6, #0
10003d86:	da03      	bge.n	10003d90 <_printf_i+0xc8>
10003d88:	232d      	movs	r3, #45	; 0x2d
10003d8a:	4276      	negs	r6, r6
10003d8c:	f884 3043 	strb.w	r3, [r4, #67]	; 0x43
10003d90:	485e      	ldr	r0, [pc, #376]	; (10003f0c <_printf_i+0x244>)
10003d92:	230a      	movs	r3, #10
10003d94:	e019      	b.n	10003dca <_printf_i+0x102>
10003d96:	680e      	ldr	r6, [r1, #0]
10003d98:	602b      	str	r3, [r5, #0]
10003d9a:	f010 0f40 	tst.w	r0, #64	; 0x40
10003d9e:	bf18      	it	ne
10003da0:	b236      	sxthne	r6, r6
10003da2:	e7ef      	b.n	10003d84 <_printf_i+0xbc>
10003da4:	682b      	ldr	r3, [r5, #0]
10003da6:	6820      	ldr	r0, [r4, #0]
10003da8:	1d19      	adds	r1, r3, #4
10003daa:	6029      	str	r1, [r5, #0]
10003dac:	0601      	lsls	r1, r0, #24
10003dae:	d501      	bpl.n	10003db4 <_printf_i+0xec>
10003db0:	681e      	ldr	r6, [r3, #0]
10003db2:	e002      	b.n	10003dba <_printf_i+0xf2>
10003db4:	0646      	lsls	r6, r0, #25
10003db6:	d5fb      	bpl.n	10003db0 <_printf_i+0xe8>
10003db8:	881e      	ldrh	r6, [r3, #0]
10003dba:	4854      	ldr	r0, [pc, #336]	; (10003f0c <_printf_i+0x244>)
10003dbc:	2f6f      	cmp	r7, #111	; 0x6f
10003dbe:	bf0c      	ite	eq
10003dc0:	2308      	moveq	r3, #8
10003dc2:	230a      	movne	r3, #10
10003dc4:	2100      	movs	r1, #0
10003dc6:	f884 1043 	strb.w	r1, [r4, #67]	; 0x43
10003dca:	6865      	ldr	r5, [r4, #4]
10003dcc:	60a5      	str	r5, [r4, #8]
10003dce:	2d00      	cmp	r5, #0
10003dd0:	bfa2      	ittt	ge
10003dd2:	6821      	ldrge	r1, [r4, #0]
10003dd4:	f021 0104 	bicge.w	r1, r1, #4
10003dd8:	6021      	strge	r1, [r4, #0]
10003dda:	b90e      	cbnz	r6, 10003de0 <_printf_i+0x118>
10003ddc:	2d00      	cmp	r5, #0
10003dde:	d04d      	beq.n	10003e7c <_printf_i+0x1b4>
10003de0:	4615      	mov	r5, r2
10003de2:	fbb6 f1f3 	udiv	r1, r6, r3
10003de6:	fb03 6711 	mls	r7, r3, r1, r6
10003dea:	5dc7      	ldrb	r7, [r0, r7]
10003dec:	f805 7d01 	strb.w	r7, [r5, #-1]!
10003df0:	4637      	mov	r7, r6
10003df2:	42bb      	cmp	r3, r7
10003df4:	460e      	mov	r6, r1
10003df6:	d9f4      	bls.n	10003de2 <_printf_i+0x11a>
10003df8:	2b08      	cmp	r3, #8
10003dfa:	d10b      	bne.n	10003e14 <_printf_i+0x14c>
10003dfc:	6823      	ldr	r3, [r4, #0]
10003dfe:	07de      	lsls	r6, r3, #31
10003e00:	d508      	bpl.n	10003e14 <_printf_i+0x14c>
10003e02:	6923      	ldr	r3, [r4, #16]
10003e04:	6861      	ldr	r1, [r4, #4]
10003e06:	4299      	cmp	r1, r3
10003e08:	bfde      	ittt	le
10003e0a:	2330      	movle	r3, #48	; 0x30
10003e0c:	f805 3c01 	strble.w	r3, [r5, #-1]
10003e10:	f105 35ff 	addle.w	r5, r5, #4294967295
10003e14:	1b52      	subs	r2, r2, r5
10003e16:	6122      	str	r2, [r4, #16]
10003e18:	f8cd a000 	str.w	sl, [sp]
10003e1c:	464b      	mov	r3, r9
10003e1e:	aa03      	add	r2, sp, #12
10003e20:	4621      	mov	r1, r4
10003e22:	4640      	mov	r0, r8
10003e24:	f7ff fee2 	bl	10003bec <_printf_common>
10003e28:	3001      	adds	r0, #1
10003e2a:	d14c      	bne.n	10003ec6 <_printf_i+0x1fe>
10003e2c:	f04f 30ff 	mov.w	r0, #4294967295
10003e30:	b004      	add	sp, #16
10003e32:	e8bd 87f0 	ldmia.w	sp!, {r4, r5, r6, r7, r8, r9, sl, pc}
10003e36:	4835      	ldr	r0, [pc, #212]	; (10003f0c <_printf_i+0x244>)
10003e38:	f881 7045 	strb.w	r7, [r1, #69]	; 0x45
10003e3c:	6829      	ldr	r1, [r5, #0]
10003e3e:	6823      	ldr	r3, [r4, #0]
10003e40:	f851 6b04 	ldr.w	r6, [r1], #4
10003e44:	6029      	str	r1, [r5, #0]
10003e46:	061d      	lsls	r5, r3, #24
10003e48:	d514      	bpl.n	10003e74 <_printf_i+0x1ac>
10003e4a:	07df      	lsls	r7, r3, #31
10003e4c:	bf44      	itt	mi
10003e4e:	f043 0320 	orrmi.w	r3, r3, #32
10003e52:	6023      	strmi	r3, [r4, #0]
10003e54:	b91e      	cbnz	r6, 10003e5e <_printf_i+0x196>
10003e56:	6823      	ldr	r3, [r4, #0]
10003e58:	f023 0320 	bic.w	r3, r3, #32
10003e5c:	6023      	str	r3, [r4, #0]
10003e5e:	2310      	movs	r3, #16
10003e60:	e7b0      	b.n	10003dc4 <_printf_i+0xfc>
10003e62:	6823      	ldr	r3, [r4, #0]
10003e64:	f043 0320 	orr.w	r3, r3, #32
10003e68:	6023      	str	r3, [r4, #0]
10003e6a:	2378      	movs	r3, #120	; 0x78
10003e6c:	4828      	ldr	r0, [pc, #160]	; (10003f10 <_printf_i+0x248>)
10003e6e:	f884 3045 	strb.w	r3, [r4, #69]	; 0x45
10003e72:	e7e3      	b.n	10003e3c <_printf_i+0x174>
10003e74:	0659      	lsls	r1, r3, #25
10003e76:	bf48      	it	mi
10003e78:	b2b6      	uxthmi	r6, r6
10003e7a:	e7e6      	b.n	10003e4a <_printf_i+0x182>
10003e7c:	4615      	mov	r5, r2
10003e7e:	e7bb      	b.n	10003df8 <_printf_i+0x130>
10003e80:	682b      	ldr	r3, [r5, #0]
10003e82:	6826      	ldr	r6, [r4, #0]
10003e84:	6961      	ldr	r1, [r4, #20]
10003e86:	1d18      	adds	r0, r3, #4
10003e88:	6028      	str	r0, [r5, #0]
10003e8a:	0635      	lsls	r5, r6, #24
10003e8c:	681b      	ldr	r3, [r3, #0]
10003e8e:	d501      	bpl.n	10003e94 <_printf_i+0x1cc>
10003e90:	6019      	str	r1, [r3, #0]
10003e92:	e002      	b.n	10003e9a <_printf_i+0x1d2>
10003e94:	0670      	lsls	r0, r6, #25
10003e96:	d5fb      	bpl.n	10003e90 <_printf_i+0x1c8>
10003e98:	8019      	strh	r1, [r3, #0]
10003e9a:	2300      	movs	r3, #0
10003e9c:	6123      	str	r3, [r4, #16]
10003e9e:	4615      	mov	r5, r2
10003ea0:	e7ba      	b.n	10003e18 <_printf_i+0x150>
10003ea2:	682b      	ldr	r3, [r5, #0]
10003ea4:	1d1a      	adds	r2, r3, #4
10003ea6:	602a      	str	r2, [r5, #0]
10003ea8:	681d      	ldr	r5, [r3, #0]
10003eaa:	6862      	ldr	r2, [r4, #4]
10003eac:	2100      	movs	r1, #0
10003eae:	4628      	mov	r0, r5
10003eb0:	f7fc f8d6 	bl	10000060 <memchr>
10003eb4:	b108      	cbz	r0, 10003eba <_printf_i+0x1f2>
10003eb6:	1b40      	subs	r0, r0, r5
10003eb8:	6060      	str	r0, [r4, #4]
10003eba:	6863      	ldr	r3, [r4, #4]
10003ebc:	6123      	str	r3, [r4, #16]
10003ebe:	2300      	movs	r3, #0
10003ec0:	f884 3043 	strb.w	r3, [r4, #67]	; 0x43
10003ec4:	e7a8      	b.n	10003e18 <_printf_i+0x150>
10003ec6:	6923      	ldr	r3, [r4, #16]
10003ec8:	462a      	mov	r2, r5
10003eca:	4649      	mov	r1, r9
10003ecc:	4640      	mov	r0, r8
10003ece:	47d0      	blx	sl
10003ed0:	3001      	adds	r0, #1
10003ed2:	d0ab      	beq.n	10003e2c <_printf_i+0x164>
10003ed4:	6823      	ldr	r3, [r4, #0]
10003ed6:	079b      	lsls	r3, r3, #30
10003ed8:	d413      	bmi.n	10003f02 <_printf_i+0x23a>
10003eda:	68e0      	ldr	r0, [r4, #12]
10003edc:	9b03      	ldr	r3, [sp, #12]
10003ede:	4298      	cmp	r0, r3
10003ee0:	bfb8      	it	lt
10003ee2:	4618      	movlt	r0, r3
10003ee4:	e7a4      	b.n	10003e30 <_printf_i+0x168>
10003ee6:	2301      	movs	r3, #1
10003ee8:	4632      	mov	r2, r6
10003eea:	4649      	mov	r1, r9
10003eec:	4640      	mov	r0, r8
10003eee:	47d0      	blx	sl
10003ef0:	3001      	adds	r0, #1
10003ef2:	d09b      	beq.n	10003e2c <_printf_i+0x164>
10003ef4:	3501      	adds	r5, #1
10003ef6:	68e3      	ldr	r3, [r4, #12]
10003ef8:	9903      	ldr	r1, [sp, #12]
10003efa:	1a5b      	subs	r3, r3, r1
10003efc:	42ab      	cmp	r3, r5
10003efe:	dcf2      	bgt.n	10003ee6 <_printf_i+0x21e>
10003f00:	e7eb      	b.n	10003eda <_printf_i+0x212>
10003f02:	2500      	movs	r5, #0
10003f04:	f104 0619 	add.w	r6, r4, #25
10003f08:	e7f5      	b.n	10003ef6 <_printf_i+0x22e>
10003f0a:	bf00      	nop
10003f0c:	10004a85 	.word	0x10004a85
10003f10:	10004a96 	.word	0x10004a96

10003f14 <_sbrk_r>:
10003f14:	b538      	push	{r3, r4, r5, lr}
10003f16:	4d06      	ldr	r5, [pc, #24]	; (10003f30 <_sbrk_r+0x1c>)
10003f18:	2300      	movs	r3, #0
10003f1a:	4604      	mov	r4, r0
10003f1c:	4608      	mov	r0, r1
10003f1e:	602b      	str	r3, [r5, #0]
10003f20:	f7fc fa70 	bl	10000404 <_sbrk>
10003f24:	1c43      	adds	r3, r0, #1
10003f26:	d102      	bne.n	10003f2e <_sbrk_r+0x1a>
10003f28:	682b      	ldr	r3, [r5, #0]
10003f2a:	b103      	cbz	r3, 10003f2e <_sbrk_r+0x1a>
10003f2c:	6023      	str	r3, [r4, #0]
10003f2e:	bd38      	pop	{r3, r4, r5, pc}
10003f30:	100202f0 	.word	0x100202f0

10003f34 <strncmp>:
10003f34:	b510      	push	{r4, lr}
10003f36:	b17a      	cbz	r2, 10003f58 <strncmp+0x24>
10003f38:	4603      	mov	r3, r0
10003f3a:	3901      	subs	r1, #1
10003f3c:	1884      	adds	r4, r0, r2
10003f3e:	f813 0b01 	ldrb.w	r0, [r3], #1
10003f42:	f811 2f01 	ldrb.w	r2, [r1, #1]!
10003f46:	4290      	cmp	r0, r2
10003f48:	d101      	bne.n	10003f4e <strncmp+0x1a>
10003f4a:	42a3      	cmp	r3, r4
10003f4c:	d101      	bne.n	10003f52 <strncmp+0x1e>
10003f4e:	1a80      	subs	r0, r0, r2
10003f50:	bd10      	pop	{r4, pc}
10003f52:	2800      	cmp	r0, #0
10003f54:	d1f3      	bne.n	10003f3e <strncmp+0xa>
10003f56:	e7fa      	b.n	10003f4e <strncmp+0x1a>
10003f58:	4610      	mov	r0, r2
10003f5a:	e7f9      	b.n	10003f50 <strncmp+0x1c>

10003f5c <strncpy>:
10003f5c:	b510      	push	{r4, lr}
10003f5e:	3901      	subs	r1, #1
10003f60:	4603      	mov	r3, r0
10003f62:	b132      	cbz	r2, 10003f72 <strncpy+0x16>
10003f64:	f811 4f01 	ldrb.w	r4, [r1, #1]!
10003f68:	f803 4b01 	strb.w	r4, [r3], #1
10003f6c:	3a01      	subs	r2, #1
10003f6e:	2c00      	cmp	r4, #0
10003f70:	d1f7      	bne.n	10003f62 <strncpy+0x6>
10003f72:	441a      	add	r2, r3
10003f74:	2100      	movs	r1, #0
10003f76:	4293      	cmp	r3, r2
10003f78:	d100      	bne.n	10003f7c <strncpy+0x20>
10003f7a:	bd10      	pop	{r4, pc}
10003f7c:	f803 1b01 	strb.w	r1, [r3], #1
10003f80:	e7f9      	b.n	10003f76 <strncpy+0x1a>
	...

10003f84 <__swbuf_r>:
10003f84:	b5f8      	push	{r3, r4, r5, r6, r7, lr}
10003f86:	460e      	mov	r6, r1
10003f88:	4614      	mov	r4, r2
10003f8a:	4605      	mov	r5, r0
10003f8c:	b118      	cbz	r0, 10003f96 <__swbuf_r+0x12>
10003f8e:	6983      	ldr	r3, [r0, #24]
10003f90:	b90b      	cbnz	r3, 10003f96 <__swbuf_r+0x12>
10003f92:	f000 f9d9 	bl	10004348 <__sinit>
10003f96:	4b21      	ldr	r3, [pc, #132]	; (1000401c <__swbuf_r+0x98>)
10003f98:	429c      	cmp	r4, r3
10003f9a:	d12b      	bne.n	10003ff4 <__swbuf_r+0x70>
10003f9c:	686c      	ldr	r4, [r5, #4]
10003f9e:	69a3      	ldr	r3, [r4, #24]
10003fa0:	60a3      	str	r3, [r4, #8]
10003fa2:	89a3      	ldrh	r3, [r4, #12]
10003fa4:	071a      	lsls	r2, r3, #28
10003fa6:	d52f      	bpl.n	10004008 <__swbuf_r+0x84>
10003fa8:	6923      	ldr	r3, [r4, #16]
10003faa:	b36b      	cbz	r3, 10004008 <__swbuf_r+0x84>
10003fac:	6923      	ldr	r3, [r4, #16]
10003fae:	6820      	ldr	r0, [r4, #0]
10003fb0:	1ac0      	subs	r0, r0, r3
10003fb2:	6963      	ldr	r3, [r4, #20]
10003fb4:	b2f6      	uxtb	r6, r6
10003fb6:	4283      	cmp	r3, r0
10003fb8:	4637      	mov	r7, r6
10003fba:	dc04      	bgt.n	10003fc6 <__swbuf_r+0x42>
10003fbc:	4621      	mov	r1, r4
10003fbe:	4628      	mov	r0, r5
10003fc0:	f000 f92e 	bl	10004220 <_fflush_r>
10003fc4:	bb30      	cbnz	r0, 10004014 <__swbuf_r+0x90>
10003fc6:	68a3      	ldr	r3, [r4, #8]
10003fc8:	3b01      	subs	r3, #1
10003fca:	60a3      	str	r3, [r4, #8]
10003fcc:	6823      	ldr	r3, [r4, #0]
10003fce:	1c5a      	adds	r2, r3, #1
10003fd0:	6022      	str	r2, [r4, #0]
10003fd2:	701e      	strb	r6, [r3, #0]
10003fd4:	6963      	ldr	r3, [r4, #20]
10003fd6:	3001      	adds	r0, #1
10003fd8:	4283      	cmp	r3, r0
10003fda:	d004      	beq.n	10003fe6 <__swbuf_r+0x62>
10003fdc:	89a3      	ldrh	r3, [r4, #12]
10003fde:	07db      	lsls	r3, r3, #31
10003fe0:	d506      	bpl.n	10003ff0 <__swbuf_r+0x6c>
10003fe2:	2e0a      	cmp	r6, #10
10003fe4:	d104      	bne.n	10003ff0 <__swbuf_r+0x6c>
10003fe6:	4621      	mov	r1, r4
10003fe8:	4628      	mov	r0, r5
10003fea:	f000 f919 	bl	10004220 <_fflush_r>
10003fee:	b988      	cbnz	r0, 10004014 <__swbuf_r+0x90>
10003ff0:	4638      	mov	r0, r7
10003ff2:	bdf8      	pop	{r3, r4, r5, r6, r7, pc}
10003ff4:	4b0a      	ldr	r3, [pc, #40]	; (10004020 <__swbuf_r+0x9c>)
10003ff6:	429c      	cmp	r4, r3
10003ff8:	d101      	bne.n	10003ffe <__swbuf_r+0x7a>
10003ffa:	68ac      	ldr	r4, [r5, #8]
10003ffc:	e7cf      	b.n	10003f9e <__swbuf_r+0x1a>
10003ffe:	4b09      	ldr	r3, [pc, #36]	; (10004024 <__swbuf_r+0xa0>)
10004000:	429c      	cmp	r4, r3
10004002:	bf08      	it	eq
10004004:	68ec      	ldreq	r4, [r5, #12]
10004006:	e7ca      	b.n	10003f9e <__swbuf_r+0x1a>
10004008:	4621      	mov	r1, r4
1000400a:	4628      	mov	r0, r5
1000400c:	f000 f80c 	bl	10004028 <__swsetup_r>
10004010:	2800      	cmp	r0, #0
10004012:	d0cb      	beq.n	10003fac <__swbuf_r+0x28>
10004014:	f04f 37ff 	mov.w	r7, #4294967295
10004018:	e7ea      	b.n	10003ff0 <__swbuf_r+0x6c>
1000401a:	bf00      	nop
1000401c:	10004ac8 	.word	0x10004ac8
10004020:	10004ae8 	.word	0x10004ae8
10004024:	10004aa8 	.word	0x10004aa8

10004028 <__swsetup_r>:
10004028:	4b32      	ldr	r3, [pc, #200]	; (100040f4 <__swsetup_r+0xcc>)
1000402a:	b570      	push	{r4, r5, r6, lr}
1000402c:	681d      	ldr	r5, [r3, #0]
1000402e:	4606      	mov	r6, r0
10004030:	460c      	mov	r4, r1
10004032:	b125      	cbz	r5, 1000403e <__swsetup_r+0x16>
10004034:	69ab      	ldr	r3, [r5, #24]
10004036:	b913      	cbnz	r3, 1000403e <__swsetup_r+0x16>
10004038:	4628      	mov	r0, r5
1000403a:	f000 f985 	bl	10004348 <__sinit>
1000403e:	4b2e      	ldr	r3, [pc, #184]	; (100040f8 <__swsetup_r+0xd0>)
10004040:	429c      	cmp	r4, r3
10004042:	d10f      	bne.n	10004064 <__swsetup_r+0x3c>
10004044:	686c      	ldr	r4, [r5, #4]
10004046:	89a3      	ldrh	r3, [r4, #12]
10004048:	f9b4 200c 	ldrsh.w	r2, [r4, #12]
1000404c:	0719      	lsls	r1, r3, #28
1000404e:	d42c      	bmi.n	100040aa <__swsetup_r+0x82>
10004050:	06dd      	lsls	r5, r3, #27
10004052:	d411      	bmi.n	10004078 <__swsetup_r+0x50>
10004054:	2309      	movs	r3, #9
10004056:	6033      	str	r3, [r6, #0]
10004058:	f042 0340 	orr.w	r3, r2, #64	; 0x40
1000405c:	81a3      	strh	r3, [r4, #12]
1000405e:	f04f 30ff 	mov.w	r0, #4294967295
10004062:	e03e      	b.n	100040e2 <__swsetup_r+0xba>
10004064:	4b25      	ldr	r3, [pc, #148]	; (100040fc <__swsetup_r+0xd4>)
10004066:	429c      	cmp	r4, r3
10004068:	d101      	bne.n	1000406e <__swsetup_r+0x46>
1000406a:	68ac      	ldr	r4, [r5, #8]
1000406c:	e7eb      	b.n	10004046 <__swsetup_r+0x1e>
1000406e:	4b24      	ldr	r3, [pc, #144]	; (10004100 <__swsetup_r+0xd8>)
10004070:	429c      	cmp	r4, r3
10004072:	bf08      	it	eq
10004074:	68ec      	ldreq	r4, [r5, #12]
10004076:	e7e6      	b.n	10004046 <__swsetup_r+0x1e>
10004078:	0758      	lsls	r0, r3, #29
1000407a:	d512      	bpl.n	100040a2 <__swsetup_r+0x7a>
1000407c:	6b61      	ldr	r1, [r4, #52]	; 0x34
1000407e:	b141      	cbz	r1, 10004092 <__swsetup_r+0x6a>
10004080:	f104 0344 	add.w	r3, r4, #68	; 0x44
10004084:	4299      	cmp	r1, r3
10004086:	d002      	beq.n	1000408e <__swsetup_r+0x66>
10004088:	4630      	mov	r0, r6
1000408a:	f7ff fb75 	bl	10003778 <_free_r>
1000408e:	2300      	movs	r3, #0
10004090:	6363      	str	r3, [r4, #52]	; 0x34
10004092:	89a3      	ldrh	r3, [r4, #12]
10004094:	f023 0324 	bic.w	r3, r3, #36	; 0x24
10004098:	81a3      	strh	r3, [r4, #12]
1000409a:	2300      	movs	r3, #0
1000409c:	6063      	str	r3, [r4, #4]
1000409e:	6923      	ldr	r3, [r4, #16]
100040a0:	6023      	str	r3, [r4, #0]
100040a2:	89a3      	ldrh	r3, [r4, #12]
100040a4:	f043 0308 	orr.w	r3, r3, #8
100040a8:	81a3      	strh	r3, [r4, #12]
100040aa:	6923      	ldr	r3, [r4, #16]
100040ac:	b94b      	cbnz	r3, 100040c2 <__swsetup_r+0x9a>
100040ae:	89a3      	ldrh	r3, [r4, #12]
100040b0:	f403 7320 	and.w	r3, r3, #640	; 0x280
100040b4:	f5b3 7f00 	cmp.w	r3, #512	; 0x200
100040b8:	d003      	beq.n	100040c2 <__swsetup_r+0x9a>
100040ba:	4621      	mov	r1, r4
100040bc:	4630      	mov	r0, r6
100040be:	f000 fa09 	bl	100044d4 <__smakebuf_r>
100040c2:	89a0      	ldrh	r0, [r4, #12]
100040c4:	f9b4 200c 	ldrsh.w	r2, [r4, #12]
100040c8:	f010 0301 	ands.w	r3, r0, #1
100040cc:	d00a      	beq.n	100040e4 <__swsetup_r+0xbc>
100040ce:	2300      	movs	r3, #0
100040d0:	60a3      	str	r3, [r4, #8]
100040d2:	6963      	ldr	r3, [r4, #20]
100040d4:	425b      	negs	r3, r3
100040d6:	61a3      	str	r3, [r4, #24]
100040d8:	6923      	ldr	r3, [r4, #16]
100040da:	b943      	cbnz	r3, 100040ee <__swsetup_r+0xc6>
100040dc:	f010 0080 	ands.w	r0, r0, #128	; 0x80
100040e0:	d1ba      	bne.n	10004058 <__swsetup_r+0x30>
100040e2:	bd70      	pop	{r4, r5, r6, pc}
100040e4:	0781      	lsls	r1, r0, #30
100040e6:	bf58      	it	pl
100040e8:	6963      	ldrpl	r3, [r4, #20]
100040ea:	60a3      	str	r3, [r4, #8]
100040ec:	e7f4      	b.n	100040d8 <__swsetup_r+0xb0>
100040ee:	2000      	movs	r0, #0
100040f0:	e7f7      	b.n	100040e2 <__swsetup_r+0xba>
100040f2:	bf00      	nop
100040f4:	100200c4 	.word	0x100200c4
100040f8:	10004ac8 	.word	0x10004ac8
100040fc:	10004ae8 	.word	0x10004ae8
10004100:	10004aa8 	.word	0x10004aa8

10004104 <abort>:
10004104:	b508      	push	{r3, lr}
10004106:	2006      	movs	r0, #6
10004108:	f000 fa58 	bl	100045bc <raise>
1000410c:	2001      	movs	r0, #1
1000410e:	f7fc f94b 	bl	100003a8 <_exit>
	...

10004114 <__sflush_r>:
10004114:	898a      	ldrh	r2, [r1, #12]
10004116:	e92d 41f0 	stmdb	sp!, {r4, r5, r6, r7, r8, lr}
1000411a:	4605      	mov	r5, r0
1000411c:	0710      	lsls	r0, r2, #28
1000411e:	460c      	mov	r4, r1
10004120:	d458      	bmi.n	100041d4 <__sflush_r+0xc0>
10004122:	684b      	ldr	r3, [r1, #4]
10004124:	2b00      	cmp	r3, #0
10004126:	dc05      	bgt.n	10004134 <__sflush_r+0x20>
10004128:	6c0b      	ldr	r3, [r1, #64]	; 0x40
1000412a:	2b00      	cmp	r3, #0
1000412c:	dc02      	bgt.n	10004134 <__sflush_r+0x20>
1000412e:	2000      	movs	r0, #0
10004130:	e8bd 81f0 	ldmia.w	sp!, {r4, r5, r6, r7, r8, pc}
10004134:	6ae6      	ldr	r6, [r4, #44]	; 0x2c
10004136:	2e00      	cmp	r6, #0
10004138:	d0f9      	beq.n	1000412e <__sflush_r+0x1a>
1000413a:	2300      	movs	r3, #0
1000413c:	f412 5280 	ands.w	r2, r2, #4096	; 0x1000
10004140:	682f      	ldr	r7, [r5, #0]
10004142:	602b      	str	r3, [r5, #0]
10004144:	d032      	beq.n	100041ac <__sflush_r+0x98>
10004146:	6d60      	ldr	r0, [r4, #84]	; 0x54
10004148:	89a3      	ldrh	r3, [r4, #12]
1000414a:	075a      	lsls	r2, r3, #29
1000414c:	d505      	bpl.n	1000415a <__sflush_r+0x46>
1000414e:	6863      	ldr	r3, [r4, #4]
10004150:	1ac0      	subs	r0, r0, r3
10004152:	6b63      	ldr	r3, [r4, #52]	; 0x34
10004154:	b10b      	cbz	r3, 1000415a <__sflush_r+0x46>
10004156:	6c23      	ldr	r3, [r4, #64]	; 0x40
10004158:	1ac0      	subs	r0, r0, r3
1000415a:	2300      	movs	r3, #0
1000415c:	4602      	mov	r2, r0
1000415e:	6ae6      	ldr	r6, [r4, #44]	; 0x2c
10004160:	6a21      	ldr	r1, [r4, #32]
10004162:	4628      	mov	r0, r5
10004164:	47b0      	blx	r6
10004166:	1c43      	adds	r3, r0, #1
10004168:	89a3      	ldrh	r3, [r4, #12]
1000416a:	d106      	bne.n	1000417a <__sflush_r+0x66>
1000416c:	6829      	ldr	r1, [r5, #0]
1000416e:	291d      	cmp	r1, #29
10004170:	d82c      	bhi.n	100041cc <__sflush_r+0xb8>
10004172:	4a2a      	ldr	r2, [pc, #168]	; (1000421c <__sflush_r+0x108>)
10004174:	40ca      	lsrs	r2, r1
10004176:	07d6      	lsls	r6, r2, #31
10004178:	d528      	bpl.n	100041cc <__sflush_r+0xb8>
1000417a:	2200      	movs	r2, #0
1000417c:	6062      	str	r2, [r4, #4]
1000417e:	04d9      	lsls	r1, r3, #19
10004180:	6922      	ldr	r2, [r4, #16]
10004182:	6022      	str	r2, [r4, #0]
10004184:	d504      	bpl.n	10004190 <__sflush_r+0x7c>
10004186:	1c42      	adds	r2, r0, #1
10004188:	d101      	bne.n	1000418e <__sflush_r+0x7a>
1000418a:	682b      	ldr	r3, [r5, #0]
1000418c:	b903      	cbnz	r3, 10004190 <__sflush_r+0x7c>
1000418e:	6560      	str	r0, [r4, #84]	; 0x54
10004190:	6b61      	ldr	r1, [r4, #52]	; 0x34
10004192:	602f      	str	r7, [r5, #0]
10004194:	2900      	cmp	r1, #0
10004196:	d0ca      	beq.n	1000412e <__sflush_r+0x1a>
10004198:	f104 0344 	add.w	r3, r4, #68	; 0x44
1000419c:	4299      	cmp	r1, r3
1000419e:	d002      	beq.n	100041a6 <__sflush_r+0x92>
100041a0:	4628      	mov	r0, r5
100041a2:	f7ff fae9 	bl	10003778 <_free_r>
100041a6:	2000      	movs	r0, #0
100041a8:	6360      	str	r0, [r4, #52]	; 0x34
100041aa:	e7c1      	b.n	10004130 <__sflush_r+0x1c>
100041ac:	6a21      	ldr	r1, [r4, #32]
100041ae:	2301      	movs	r3, #1
100041b0:	4628      	mov	r0, r5
100041b2:	47b0      	blx	r6
100041b4:	1c41      	adds	r1, r0, #1
100041b6:	d1c7      	bne.n	10004148 <__sflush_r+0x34>
100041b8:	682b      	ldr	r3, [r5, #0]
100041ba:	2b00      	cmp	r3, #0
100041bc:	d0c4      	beq.n	10004148 <__sflush_r+0x34>
100041be:	2b1d      	cmp	r3, #29
100041c0:	d001      	beq.n	100041c6 <__sflush_r+0xb2>
100041c2:	2b16      	cmp	r3, #22
100041c4:	d101      	bne.n	100041ca <__sflush_r+0xb6>
100041c6:	602f      	str	r7, [r5, #0]
100041c8:	e7b1      	b.n	1000412e <__sflush_r+0x1a>
100041ca:	89a3      	ldrh	r3, [r4, #12]
100041cc:	f043 0340 	orr.w	r3, r3, #64	; 0x40
100041d0:	81a3      	strh	r3, [r4, #12]
100041d2:	e7ad      	b.n	10004130 <__sflush_r+0x1c>
100041d4:	690f      	ldr	r7, [r1, #16]
100041d6:	2f00      	cmp	r7, #0
100041d8:	d0a9      	beq.n	1000412e <__sflush_r+0x1a>
100041da:	0793      	lsls	r3, r2, #30
100041dc:	680e      	ldr	r6, [r1, #0]
100041de:	bf08      	it	eq
100041e0:	694b      	ldreq	r3, [r1, #20]
100041e2:	600f      	str	r7, [r1, #0]
100041e4:	bf18      	it	ne
100041e6:	2300      	movne	r3, #0
100041e8:	eba6 0807 	sub.w	r8, r6, r7
100041ec:	608b      	str	r3, [r1, #8]
100041ee:	f1b8 0f00 	cmp.w	r8, #0
100041f2:	dd9c      	ble.n	1000412e <__sflush_r+0x1a>
100041f4:	6a21      	ldr	r1, [r4, #32]
100041f6:	6aa6      	ldr	r6, [r4, #40]	; 0x28
100041f8:	4643      	mov	r3, r8
100041fa:	463a      	mov	r2, r7
100041fc:	4628      	mov	r0, r5
100041fe:	47b0      	blx	r6
10004200:	2800      	cmp	r0, #0
10004202:	dc06      	bgt.n	10004212 <__sflush_r+0xfe>
10004204:	89a3      	ldrh	r3, [r4, #12]
10004206:	f043 0340 	orr.w	r3, r3, #64	; 0x40
1000420a:	81a3      	strh	r3, [r4, #12]
1000420c:	f04f 30ff 	mov.w	r0, #4294967295
10004210:	e78e      	b.n	10004130 <__sflush_r+0x1c>
10004212:	4407      	add	r7, r0
10004214:	eba8 0800 	sub.w	r8, r8, r0
10004218:	e7e9      	b.n	100041ee <__sflush_r+0xda>
1000421a:	bf00      	nop
1000421c:	20400001 	.word	0x20400001

10004220 <_fflush_r>:
10004220:	b538      	push	{r3, r4, r5, lr}
10004222:	690b      	ldr	r3, [r1, #16]
10004224:	4605      	mov	r5, r0
10004226:	460c      	mov	r4, r1
10004228:	b913      	cbnz	r3, 10004230 <_fflush_r+0x10>
1000422a:	2500      	movs	r5, #0
1000422c:	4628      	mov	r0, r5
1000422e:	bd38      	pop	{r3, r4, r5, pc}
10004230:	b118      	cbz	r0, 1000423a <_fflush_r+0x1a>
10004232:	6983      	ldr	r3, [r0, #24]
10004234:	b90b      	cbnz	r3, 1000423a <_fflush_r+0x1a>
10004236:	f000 f887 	bl	10004348 <__sinit>
1000423a:	4b14      	ldr	r3, [pc, #80]	; (1000428c <_fflush_r+0x6c>)
1000423c:	429c      	cmp	r4, r3
1000423e:	d11b      	bne.n	10004278 <_fflush_r+0x58>
10004240:	686c      	ldr	r4, [r5, #4]
10004242:	f9b4 300c 	ldrsh.w	r3, [r4, #12]
10004246:	2b00      	cmp	r3, #0
10004248:	d0ef      	beq.n	1000422a <_fflush_r+0xa>
1000424a:	6e62      	ldr	r2, [r4, #100]	; 0x64
1000424c:	07d0      	lsls	r0, r2, #31
1000424e:	d404      	bmi.n	1000425a <_fflush_r+0x3a>
10004250:	0599      	lsls	r1, r3, #22
10004252:	d402      	bmi.n	1000425a <_fflush_r+0x3a>
10004254:	6da0      	ldr	r0, [r4, #88]	; 0x58
10004256:	f000 f915 	bl	10004484 <__retarget_lock_acquire_recursive>
1000425a:	4628      	mov	r0, r5
1000425c:	4621      	mov	r1, r4
1000425e:	f7ff ff59 	bl	10004114 <__sflush_r>
10004262:	6e63      	ldr	r3, [r4, #100]	; 0x64
10004264:	07da      	lsls	r2, r3, #31
10004266:	4605      	mov	r5, r0
10004268:	d4e0      	bmi.n	1000422c <_fflush_r+0xc>
1000426a:	89a3      	ldrh	r3, [r4, #12]
1000426c:	059b      	lsls	r3, r3, #22
1000426e:	d4dd      	bmi.n	1000422c <_fflush_r+0xc>
10004270:	6da0      	ldr	r0, [r4, #88]	; 0x58
10004272:	f000 f908 	bl	10004486 <__retarget_lock_release_recursive>
10004276:	e7d9      	b.n	1000422c <_fflush_r+0xc>
10004278:	4b05      	ldr	r3, [pc, #20]	; (10004290 <_fflush_r+0x70>)
1000427a:	429c      	cmp	r4, r3
1000427c:	d101      	bne.n	10004282 <_fflush_r+0x62>
1000427e:	68ac      	ldr	r4, [r5, #8]
10004280:	e7df      	b.n	10004242 <_fflush_r+0x22>
10004282:	4b04      	ldr	r3, [pc, #16]	; (10004294 <_fflush_r+0x74>)
10004284:	429c      	cmp	r4, r3
10004286:	bf08      	it	eq
10004288:	68ec      	ldreq	r4, [r5, #12]
1000428a:	e7da      	b.n	10004242 <_fflush_r+0x22>
1000428c:	10004ac8 	.word	0x10004ac8
10004290:	10004ae8 	.word	0x10004ae8
10004294:	10004aa8 	.word	0x10004aa8

10004298 <std>:
10004298:	2300      	movs	r3, #0
1000429a:	b510      	push	{r4, lr}
1000429c:	4604      	mov	r4, r0
1000429e:	e9c0 3300 	strd	r3, r3, [r0]
100042a2:	e9c0 3304 	strd	r3, r3, [r0, #16]
100042a6:	6083      	str	r3, [r0, #8]
100042a8:	8181      	strh	r1, [r0, #12]
100042aa:	6643      	str	r3, [r0, #100]	; 0x64
100042ac:	81c2      	strh	r2, [r0, #14]
100042ae:	6183      	str	r3, [r0, #24]
100042b0:	4619      	mov	r1, r3
100042b2:	2208      	movs	r2, #8
100042b4:	305c      	adds	r0, #92	; 0x5c
100042b6:	f7ff fa57 	bl	10003768 <memset>
100042ba:	4b05      	ldr	r3, [pc, #20]	; (100042d0 <std+0x38>)
100042bc:	6263      	str	r3, [r4, #36]	; 0x24
100042be:	4b05      	ldr	r3, [pc, #20]	; (100042d4 <std+0x3c>)
100042c0:	62a3      	str	r3, [r4, #40]	; 0x28
100042c2:	4b05      	ldr	r3, [pc, #20]	; (100042d8 <std+0x40>)
100042c4:	62e3      	str	r3, [r4, #44]	; 0x2c
100042c6:	4b05      	ldr	r3, [pc, #20]	; (100042dc <std+0x44>)
100042c8:	6224      	str	r4, [r4, #32]
100042ca:	6323      	str	r3, [r4, #48]	; 0x30
100042cc:	bd10      	pop	{r4, pc}
100042ce:	bf00      	nop
100042d0:	100045f5 	.word	0x100045f5
100042d4:	10004617 	.word	0x10004617
100042d8:	1000464f 	.word	0x1000464f
100042dc:	10004673 	.word	0x10004673

100042e0 <_cleanup_r>:
100042e0:	4901      	ldr	r1, [pc, #4]	; (100042e8 <_cleanup_r+0x8>)
100042e2:	f000 b8af 	b.w	10004444 <_fwalk_reent>
100042e6:	bf00      	nop
100042e8:	10004221 	.word	0x10004221

100042ec <__sfmoreglue>:
100042ec:	b570      	push	{r4, r5, r6, lr}
100042ee:	2268      	movs	r2, #104	; 0x68
100042f0:	1e4d      	subs	r5, r1, #1
100042f2:	4355      	muls	r5, r2
100042f4:	460e      	mov	r6, r1
100042f6:	f105 0174 	add.w	r1, r5, #116	; 0x74
100042fa:	f7ff faa9 	bl	10003850 <_malloc_r>
100042fe:	4604      	mov	r4, r0
10004300:	b140      	cbz	r0, 10004314 <__sfmoreglue+0x28>
10004302:	2100      	movs	r1, #0
10004304:	e9c0 1600 	strd	r1, r6, [r0]
10004308:	300c      	adds	r0, #12
1000430a:	60a0      	str	r0, [r4, #8]
1000430c:	f105 0268 	add.w	r2, r5, #104	; 0x68
10004310:	f7ff fa2a 	bl	10003768 <memset>
10004314:	4620      	mov	r0, r4
10004316:	bd70      	pop	{r4, r5, r6, pc}

10004318 <__sfp_lock_acquire>:
10004318:	4801      	ldr	r0, [pc, #4]	; (10004320 <__sfp_lock_acquire+0x8>)
1000431a:	f000 b8b3 	b.w	10004484 <__retarget_lock_acquire_recursive>
1000431e:	bf00      	nop
10004320:	100202ed 	.word	0x100202ed

10004324 <__sfp_lock_release>:
10004324:	4801      	ldr	r0, [pc, #4]	; (1000432c <__sfp_lock_release+0x8>)
10004326:	f000 b8ae 	b.w	10004486 <__retarget_lock_release_recursive>
1000432a:	bf00      	nop
1000432c:	100202ed 	.word	0x100202ed

10004330 <__sinit_lock_acquire>:
10004330:	4801      	ldr	r0, [pc, #4]	; (10004338 <__sinit_lock_acquire+0x8>)
10004332:	f000 b8a7 	b.w	10004484 <__retarget_lock_acquire_recursive>
10004336:	bf00      	nop
10004338:	100202ee 	.word	0x100202ee

1000433c <__sinit_lock_release>:
1000433c:	4801      	ldr	r0, [pc, #4]	; (10004344 <__sinit_lock_release+0x8>)
1000433e:	f000 b8a2 	b.w	10004486 <__retarget_lock_release_recursive>
10004342:	bf00      	nop
10004344:	100202ee 	.word	0x100202ee

10004348 <__sinit>:
10004348:	b510      	push	{r4, lr}
1000434a:	4604      	mov	r4, r0
1000434c:	f7ff fff0 	bl	10004330 <__sinit_lock_acquire>
10004350:	69a3      	ldr	r3, [r4, #24]
10004352:	b11b      	cbz	r3, 1000435c <__sinit+0x14>
10004354:	e8bd 4010 	ldmia.w	sp!, {r4, lr}
10004358:	f7ff bff0 	b.w	1000433c <__sinit_lock_release>
1000435c:	e9c4 3312 	strd	r3, r3, [r4, #72]	; 0x48
10004360:	6523      	str	r3, [r4, #80]	; 0x50
10004362:	4b13      	ldr	r3, [pc, #76]	; (100043b0 <__sinit+0x68>)
10004364:	4a13      	ldr	r2, [pc, #76]	; (100043b4 <__sinit+0x6c>)
10004366:	681b      	ldr	r3, [r3, #0]
10004368:	62a2      	str	r2, [r4, #40]	; 0x28
1000436a:	42a3      	cmp	r3, r4
1000436c:	bf04      	itt	eq
1000436e:	2301      	moveq	r3, #1
10004370:	61a3      	streq	r3, [r4, #24]
10004372:	4620      	mov	r0, r4
10004374:	f000 f820 	bl	100043b8 <__sfp>
10004378:	6060      	str	r0, [r4, #4]
1000437a:	4620      	mov	r0, r4
1000437c:	f000 f81c 	bl	100043b8 <__sfp>
10004380:	60a0      	str	r0, [r4, #8]
10004382:	4620      	mov	r0, r4
10004384:	f000 f818 	bl	100043b8 <__sfp>
10004388:	2200      	movs	r2, #0
1000438a:	60e0      	str	r0, [r4, #12]
1000438c:	2104      	movs	r1, #4
1000438e:	6860      	ldr	r0, [r4, #4]
10004390:	f7ff ff82 	bl	10004298 <std>
10004394:	68a0      	ldr	r0, [r4, #8]
10004396:	2201      	movs	r2, #1
10004398:	2109      	movs	r1, #9
1000439a:	f7ff ff7d 	bl	10004298 <std>
1000439e:	68e0      	ldr	r0, [r4, #12]
100043a0:	2202      	movs	r2, #2
100043a2:	2112      	movs	r1, #18
100043a4:	f7ff ff78 	bl	10004298 <std>
100043a8:	2301      	movs	r3, #1
100043aa:	61a3      	str	r3, [r4, #24]
100043ac:	e7d2      	b.n	10004354 <__sinit+0xc>
100043ae:	bf00      	nop
100043b0:	10004a70 	.word	0x10004a70
100043b4:	100042e1 	.word	0x100042e1

100043b8 <__sfp>:
100043b8:	b5f8      	push	{r3, r4, r5, r6, r7, lr}
100043ba:	4607      	mov	r7, r0
100043bc:	f7ff ffac 	bl	10004318 <__sfp_lock_acquire>
100043c0:	4b1e      	ldr	r3, [pc, #120]	; (1000443c <__sfp+0x84>)
100043c2:	681e      	ldr	r6, [r3, #0]
100043c4:	69b3      	ldr	r3, [r6, #24]
100043c6:	b913      	cbnz	r3, 100043ce <__sfp+0x16>
100043c8:	4630      	mov	r0, r6
100043ca:	f7ff ffbd 	bl	10004348 <__sinit>
100043ce:	3648      	adds	r6, #72	; 0x48
100043d0:	e9d6 3401 	ldrd	r3, r4, [r6, #4]
100043d4:	3b01      	subs	r3, #1
100043d6:	d503      	bpl.n	100043e0 <__sfp+0x28>
100043d8:	6833      	ldr	r3, [r6, #0]
100043da:	b30b      	cbz	r3, 10004420 <__sfp+0x68>
100043dc:	6836      	ldr	r6, [r6, #0]
100043de:	e7f7      	b.n	100043d0 <__sfp+0x18>
100043e0:	f9b4 500c 	ldrsh.w	r5, [r4, #12]
100043e4:	b9d5      	cbnz	r5, 1000441c <__sfp+0x64>
100043e6:	4b16      	ldr	r3, [pc, #88]	; (10004440 <__sfp+0x88>)
100043e8:	60e3      	str	r3, [r4, #12]
100043ea:	f104 0058 	add.w	r0, r4, #88	; 0x58
100043ee:	6665      	str	r5, [r4, #100]	; 0x64
100043f0:	f000 f847 	bl	10004482 <__retarget_lock_init_recursive>
100043f4:	f7ff ff96 	bl	10004324 <__sfp_lock_release>
100043f8:	e9c4 5501 	strd	r5, r5, [r4, #4]
100043fc:	e9c4 5504 	strd	r5, r5, [r4, #16]
10004400:	6025      	str	r5, [r4, #0]
10004402:	61a5      	str	r5, [r4, #24]
10004404:	2208      	movs	r2, #8
10004406:	4629      	mov	r1, r5
10004408:	f104 005c 	add.w	r0, r4, #92	; 0x5c
1000440c:	f7ff f9ac 	bl	10003768 <memset>
10004410:	e9c4 550d 	strd	r5, r5, [r4, #52]	; 0x34
10004414:	e9c4 5512 	strd	r5, r5, [r4, #72]	; 0x48
10004418:	4620      	mov	r0, r4
1000441a:	bdf8      	pop	{r3, r4, r5, r6, r7, pc}
1000441c:	3468      	adds	r4, #104	; 0x68
1000441e:	e7d9      	b.n	100043d4 <__sfp+0x1c>
10004420:	2104      	movs	r1, #4
10004422:	4638      	mov	r0, r7
10004424:	f7ff ff62 	bl	100042ec <__sfmoreglue>
10004428:	4604      	mov	r4, r0
1000442a:	6030      	str	r0, [r6, #0]
1000442c:	2800      	cmp	r0, #0
1000442e:	d1d5      	bne.n	100043dc <__sfp+0x24>
10004430:	f7ff ff78 	bl	10004324 <__sfp_lock_release>
10004434:	230c      	movs	r3, #12
10004436:	603b      	str	r3, [r7, #0]
10004438:	e7ee      	b.n	10004418 <__sfp+0x60>
1000443a:	bf00      	nop
1000443c:	10004a70 	.word	0x10004a70
10004440:	ffff0001 	.word	0xffff0001

10004444 <_fwalk_reent>:
10004444:	e92d 43f8 	stmdb	sp!, {r3, r4, r5, r6, r7, r8, r9, lr}
10004448:	4606      	mov	r6, r0
1000444a:	4688      	mov	r8, r1
1000444c:	f100 0448 	add.w	r4, r0, #72	; 0x48
10004450:	2700      	movs	r7, #0
10004452:	e9d4 9501 	ldrd	r9, r5, [r4, #4]
10004456:	f1b9 0901 	subs.w	r9, r9, #1
1000445a:	d505      	bpl.n	10004468 <_fwalk_reent+0x24>
1000445c:	6824      	ldr	r4, [r4, #0]
1000445e:	2c00      	cmp	r4, #0
10004460:	d1f7      	bne.n	10004452 <_fwalk_reent+0xe>
10004462:	4638      	mov	r0, r7
10004464:	e8bd 83f8 	ldmia.w	sp!, {r3, r4, r5, r6, r7, r8, r9, pc}
10004468:	89ab      	ldrh	r3, [r5, #12]
1000446a:	2b01      	cmp	r3, #1
1000446c:	d907      	bls.n	1000447e <_fwalk_reent+0x3a>
1000446e:	f9b5 300e 	ldrsh.w	r3, [r5, #14]
10004472:	3301      	adds	r3, #1
10004474:	d003      	beq.n	1000447e <_fwalk_reent+0x3a>
10004476:	4629      	mov	r1, r5
10004478:	4630      	mov	r0, r6
1000447a:	47c0      	blx	r8
1000447c:	4307      	orrs	r7, r0
1000447e:	3568      	adds	r5, #104	; 0x68
10004480:	e7e9      	b.n	10004456 <_fwalk_reent+0x12>

10004482 <__retarget_lock_init_recursive>:
10004482:	4770      	bx	lr

10004484 <__retarget_lock_acquire_recursive>:
10004484:	4770      	bx	lr

10004486 <__retarget_lock_release_recursive>:
10004486:	4770      	bx	lr

10004488 <__swhatbuf_r>:
10004488:	b570      	push	{r4, r5, r6, lr}
1000448a:	460e      	mov	r6, r1
1000448c:	f9b1 100e 	ldrsh.w	r1, [r1, #14]
10004490:	2900      	cmp	r1, #0
10004492:	b096      	sub	sp, #88	; 0x58
10004494:	4614      	mov	r4, r2
10004496:	461d      	mov	r5, r3
10004498:	da08      	bge.n	100044ac <__swhatbuf_r+0x24>
1000449a:	f9b6 300c 	ldrsh.w	r3, [r6, #12]
1000449e:	2200      	movs	r2, #0
100044a0:	602a      	str	r2, [r5, #0]
100044a2:	061a      	lsls	r2, r3, #24
100044a4:	d410      	bmi.n	100044c8 <__swhatbuf_r+0x40>
100044a6:	f44f 6380 	mov.w	r3, #1024	; 0x400
100044aa:	e00e      	b.n	100044ca <__swhatbuf_r+0x42>
100044ac:	466a      	mov	r2, sp
100044ae:	f000 f907 	bl	100046c0 <_fstat_r>
100044b2:	2800      	cmp	r0, #0
100044b4:	dbf1      	blt.n	1000449a <__swhatbuf_r+0x12>
100044b6:	9a01      	ldr	r2, [sp, #4]
100044b8:	f402 4270 	and.w	r2, r2, #61440	; 0xf000
100044bc:	f5a2 5300 	sub.w	r3, r2, #8192	; 0x2000
100044c0:	425a      	negs	r2, r3
100044c2:	415a      	adcs	r2, r3
100044c4:	602a      	str	r2, [r5, #0]
100044c6:	e7ee      	b.n	100044a6 <__swhatbuf_r+0x1e>
100044c8:	2340      	movs	r3, #64	; 0x40
100044ca:	2000      	movs	r0, #0
100044cc:	6023      	str	r3, [r4, #0]
100044ce:	b016      	add	sp, #88	; 0x58
100044d0:	bd70      	pop	{r4, r5, r6, pc}
	...

100044d4 <__smakebuf_r>:
100044d4:	898b      	ldrh	r3, [r1, #12]
100044d6:	b573      	push	{r0, r1, r4, r5, r6, lr}
100044d8:	079d      	lsls	r5, r3, #30
100044da:	4606      	mov	r6, r0
100044dc:	460c      	mov	r4, r1
100044de:	d507      	bpl.n	100044f0 <__smakebuf_r+0x1c>
100044e0:	f104 0347 	add.w	r3, r4, #71	; 0x47
100044e4:	6023      	str	r3, [r4, #0]
100044e6:	6123      	str	r3, [r4, #16]
100044e8:	2301      	movs	r3, #1
100044ea:	6163      	str	r3, [r4, #20]
100044ec:	b002      	add	sp, #8
100044ee:	bd70      	pop	{r4, r5, r6, pc}
100044f0:	ab01      	add	r3, sp, #4
100044f2:	466a      	mov	r2, sp
100044f4:	f7ff ffc8 	bl	10004488 <__swhatbuf_r>
100044f8:	9900      	ldr	r1, [sp, #0]
100044fa:	4605      	mov	r5, r0
100044fc:	4630      	mov	r0, r6
100044fe:	f7ff f9a7 	bl	10003850 <_malloc_r>
10004502:	b948      	cbnz	r0, 10004518 <__smakebuf_r+0x44>
10004504:	f9b4 300c 	ldrsh.w	r3, [r4, #12]
10004508:	059a      	lsls	r2, r3, #22
1000450a:	d4ef      	bmi.n	100044ec <__smakebuf_r+0x18>
1000450c:	f023 0303 	bic.w	r3, r3, #3
10004510:	f043 0302 	orr.w	r3, r3, #2
10004514:	81a3      	strh	r3, [r4, #12]
10004516:	e7e3      	b.n	100044e0 <__smakebuf_r+0xc>
10004518:	4b0d      	ldr	r3, [pc, #52]	; (10004550 <__smakebuf_r+0x7c>)
1000451a:	62b3      	str	r3, [r6, #40]	; 0x28
1000451c:	89a3      	ldrh	r3, [r4, #12]
1000451e:	6020      	str	r0, [r4, #0]
10004520:	f043 0380 	orr.w	r3, r3, #128	; 0x80
10004524:	81a3      	strh	r3, [r4, #12]
10004526:	9b00      	ldr	r3, [sp, #0]
10004528:	6163      	str	r3, [r4, #20]
1000452a:	9b01      	ldr	r3, [sp, #4]
1000452c:	6120      	str	r0, [r4, #16]
1000452e:	b15b      	cbz	r3, 10004548 <__smakebuf_r+0x74>
10004530:	f9b4 100e 	ldrsh.w	r1, [r4, #14]
10004534:	4630      	mov	r0, r6
10004536:	f000 f8d5 	bl	100046e4 <_isatty_r>
1000453a:	b128      	cbz	r0, 10004548 <__smakebuf_r+0x74>
1000453c:	89a3      	ldrh	r3, [r4, #12]
1000453e:	f023 0303 	bic.w	r3, r3, #3
10004542:	f043 0301 	orr.w	r3, r3, #1
10004546:	81a3      	strh	r3, [r4, #12]
10004548:	89a0      	ldrh	r0, [r4, #12]
1000454a:	4305      	orrs	r5, r0
1000454c:	81a5      	strh	r5, [r4, #12]
1000454e:	e7cd      	b.n	100044ec <__smakebuf_r+0x18>
10004550:	100042e1 	.word	0x100042e1

10004554 <__malloc_lock>:
10004554:	4801      	ldr	r0, [pc, #4]	; (1000455c <__malloc_lock+0x8>)
10004556:	f7ff bf95 	b.w	10004484 <__retarget_lock_acquire_recursive>
1000455a:	bf00      	nop
1000455c:	100202ec 	.word	0x100202ec

10004560 <__malloc_unlock>:
10004560:	4801      	ldr	r0, [pc, #4]	; (10004568 <__malloc_unlock+0x8>)
10004562:	f7ff bf90 	b.w	10004486 <__retarget_lock_release_recursive>
10004566:	bf00      	nop
10004568:	100202ec 	.word	0x100202ec

1000456c <_raise_r>:
1000456c:	291f      	cmp	r1, #31
1000456e:	b538      	push	{r3, r4, r5, lr}
10004570:	4604      	mov	r4, r0
10004572:	460d      	mov	r5, r1
10004574:	d904      	bls.n	10004580 <_raise_r+0x14>
10004576:	2316      	movs	r3, #22
10004578:	6003      	str	r3, [r0, #0]
1000457a:	f04f 30ff 	mov.w	r0, #4294967295
1000457e:	bd38      	pop	{r3, r4, r5, pc}
10004580:	6c42      	ldr	r2, [r0, #68]	; 0x44
10004582:	b112      	cbz	r2, 1000458a <_raise_r+0x1e>
10004584:	f852 3021 	ldr.w	r3, [r2, r1, lsl #2]
10004588:	b94b      	cbnz	r3, 1000459e <_raise_r+0x32>
1000458a:	4620      	mov	r0, r4
1000458c:	f000 f830 	bl	100045f0 <_getpid_r>
10004590:	462a      	mov	r2, r5
10004592:	4601      	mov	r1, r0
10004594:	4620      	mov	r0, r4
10004596:	e8bd 4038 	ldmia.w	sp!, {r3, r4, r5, lr}
1000459a:	f000 b817 	b.w	100045cc <_kill_r>
1000459e:	2b01      	cmp	r3, #1
100045a0:	d00a      	beq.n	100045b8 <_raise_r+0x4c>
100045a2:	1c59      	adds	r1, r3, #1
100045a4:	d103      	bne.n	100045ae <_raise_r+0x42>
100045a6:	2316      	movs	r3, #22
100045a8:	6003      	str	r3, [r0, #0]
100045aa:	2001      	movs	r0, #1
100045ac:	e7e7      	b.n	1000457e <_raise_r+0x12>
100045ae:	2400      	movs	r4, #0
100045b0:	f842 4025 	str.w	r4, [r2, r5, lsl #2]
100045b4:	4628      	mov	r0, r5
100045b6:	4798      	blx	r3
100045b8:	2000      	movs	r0, #0
100045ba:	e7e0      	b.n	1000457e <_raise_r+0x12>

100045bc <raise>:
100045bc:	4b02      	ldr	r3, [pc, #8]	; (100045c8 <raise+0xc>)
100045be:	4601      	mov	r1, r0
100045c0:	6818      	ldr	r0, [r3, #0]
100045c2:	f7ff bfd3 	b.w	1000456c <_raise_r>
100045c6:	bf00      	nop
100045c8:	100200c4 	.word	0x100200c4

100045cc <_kill_r>:
100045cc:	b538      	push	{r3, r4, r5, lr}
100045ce:	4d07      	ldr	r5, [pc, #28]	; (100045ec <_kill_r+0x20>)
100045d0:	2300      	movs	r3, #0
100045d2:	4604      	mov	r4, r0
100045d4:	4608      	mov	r0, r1
100045d6:	4611      	mov	r1, r2
100045d8:	602b      	str	r3, [r5, #0]
100045da:	f7fb fedd 	bl	10000398 <_kill>
100045de:	1c43      	adds	r3, r0, #1
100045e0:	d102      	bne.n	100045e8 <_kill_r+0x1c>
100045e2:	682b      	ldr	r3, [r5, #0]
100045e4:	b103      	cbz	r3, 100045e8 <_kill_r+0x1c>
100045e6:	6023      	str	r3, [r4, #0]
100045e8:	bd38      	pop	{r3, r4, r5, pc}
100045ea:	bf00      	nop
100045ec:	100202f0 	.word	0x100202f0

100045f0 <_getpid_r>:
100045f0:	f7fb bed0 	b.w	10000394 <_getpid>

100045f4 <__sread>:
100045f4:	b510      	push	{r4, lr}
100045f6:	460c      	mov	r4, r1
100045f8:	f9b1 100e 	ldrsh.w	r1, [r1, #14]
100045fc:	f000 f894 	bl	10004728 <_read_r>
10004600:	2800      	cmp	r0, #0
10004602:	bfab      	itete	ge
10004604:	6d63      	ldrge	r3, [r4, #84]	; 0x54
10004606:	89a3      	ldrhlt	r3, [r4, #12]
10004608:	181b      	addge	r3, r3, r0
1000460a:	f423 5380 	biclt.w	r3, r3, #4096	; 0x1000
1000460e:	bfac      	ite	ge
10004610:	6563      	strge	r3, [r4, #84]	; 0x54
10004612:	81a3      	strhlt	r3, [r4, #12]
10004614:	bd10      	pop	{r4, pc}

10004616 <__swrite>:
10004616:	e92d 41f0 	stmdb	sp!, {r4, r5, r6, r7, r8, lr}
1000461a:	461f      	mov	r7, r3
1000461c:	898b      	ldrh	r3, [r1, #12]
1000461e:	05db      	lsls	r3, r3, #23
10004620:	4605      	mov	r5, r0
10004622:	460c      	mov	r4, r1
10004624:	4616      	mov	r6, r2
10004626:	d505      	bpl.n	10004634 <__swrite+0x1e>
10004628:	f9b1 100e 	ldrsh.w	r1, [r1, #14]
1000462c:	2302      	movs	r3, #2
1000462e:	2200      	movs	r2, #0
10004630:	f000 f868 	bl	10004704 <_lseek_r>
10004634:	89a3      	ldrh	r3, [r4, #12]
10004636:	f9b4 100e 	ldrsh.w	r1, [r4, #14]
1000463a:	f423 5380 	bic.w	r3, r3, #4096	; 0x1000
1000463e:	81a3      	strh	r3, [r4, #12]
10004640:	4632      	mov	r2, r6
10004642:	463b      	mov	r3, r7
10004644:	4628      	mov	r0, r5
10004646:	e8bd 41f0 	ldmia.w	sp!, {r4, r5, r6, r7, r8, lr}
1000464a:	f000 b817 	b.w	1000467c <_write_r>

1000464e <__sseek>:
1000464e:	b510      	push	{r4, lr}
10004650:	460c      	mov	r4, r1
10004652:	f9b1 100e 	ldrsh.w	r1, [r1, #14]
10004656:	f000 f855 	bl	10004704 <_lseek_r>
1000465a:	1c43      	adds	r3, r0, #1
1000465c:	89a3      	ldrh	r3, [r4, #12]
1000465e:	bf15      	itete	ne
10004660:	6560      	strne	r0, [r4, #84]	; 0x54
10004662:	f423 5380 	biceq.w	r3, r3, #4096	; 0x1000
10004666:	f443 5380 	orrne.w	r3, r3, #4096	; 0x1000
1000466a:	81a3      	strheq	r3, [r4, #12]
1000466c:	bf18      	it	ne
1000466e:	81a3      	strhne	r3, [r4, #12]
10004670:	bd10      	pop	{r4, pc}

10004672 <__sclose>:
10004672:	f9b1 100e 	ldrsh.w	r1, [r1, #14]
10004676:	f000 b813 	b.w	100046a0 <_close_r>
	...

1000467c <_write_r>:
1000467c:	b538      	push	{r3, r4, r5, lr}
1000467e:	4d07      	ldr	r5, [pc, #28]	; (1000469c <_write_r+0x20>)
10004680:	4604      	mov	r4, r0
10004682:	4608      	mov	r0, r1
10004684:	4611      	mov	r1, r2
10004686:	2200      	movs	r2, #0
10004688:	602a      	str	r2, [r5, #0]
1000468a:	461a      	mov	r2, r3
1000468c:	f7fb fea0 	bl	100003d0 <_write>
10004690:	1c43      	adds	r3, r0, #1
10004692:	d102      	bne.n	1000469a <_write_r+0x1e>
10004694:	682b      	ldr	r3, [r5, #0]
10004696:	b103      	cbz	r3, 1000469a <_write_r+0x1e>
10004698:	6023      	str	r3, [r4, #0]
1000469a:	bd38      	pop	{r3, r4, r5, pc}
1000469c:	100202f0 	.word	0x100202f0

100046a0 <_close_r>:
100046a0:	b538      	push	{r3, r4, r5, lr}
100046a2:	4d06      	ldr	r5, [pc, #24]	; (100046bc <_close_r+0x1c>)
100046a4:	2300      	movs	r3, #0
100046a6:	4604      	mov	r4, r0
100046a8:	4608      	mov	r0, r1
100046aa:	602b      	str	r3, [r5, #0]
100046ac:	f7fb fe9e 	bl	100003ec <_close>
100046b0:	1c43      	adds	r3, r0, #1
100046b2:	d102      	bne.n	100046ba <_close_r+0x1a>
100046b4:	682b      	ldr	r3, [r5, #0]
100046b6:	b103      	cbz	r3, 100046ba <_close_r+0x1a>
100046b8:	6023      	str	r3, [r4, #0]
100046ba:	bd38      	pop	{r3, r4, r5, pc}
100046bc:	100202f0 	.word	0x100202f0

100046c0 <_fstat_r>:
100046c0:	b538      	push	{r3, r4, r5, lr}
100046c2:	4d07      	ldr	r5, [pc, #28]	; (100046e0 <_fstat_r+0x20>)
100046c4:	2300      	movs	r3, #0
100046c6:	4604      	mov	r4, r0
100046c8:	4608      	mov	r0, r1
100046ca:	4611      	mov	r1, r2
100046cc:	602b      	str	r3, [r5, #0]
100046ce:	f7fb fe90 	bl	100003f2 <_fstat>
100046d2:	1c43      	adds	r3, r0, #1
100046d4:	d102      	bne.n	100046dc <_fstat_r+0x1c>
100046d6:	682b      	ldr	r3, [r5, #0]
100046d8:	b103      	cbz	r3, 100046dc <_fstat_r+0x1c>
100046da:	6023      	str	r3, [r4, #0]
100046dc:	bd38      	pop	{r3, r4, r5, pc}
100046de:	bf00      	nop
100046e0:	100202f0 	.word	0x100202f0

100046e4 <_isatty_r>:
100046e4:	b538      	push	{r3, r4, r5, lr}
100046e6:	4d06      	ldr	r5, [pc, #24]	; (10004700 <_isatty_r+0x1c>)
100046e8:	2300      	movs	r3, #0
100046ea:	4604      	mov	r4, r0
100046ec:	4608      	mov	r0, r1
100046ee:	602b      	str	r3, [r5, #0]
100046f0:	f7fb fe84 	bl	100003fc <_isatty>
100046f4:	1c43      	adds	r3, r0, #1
100046f6:	d102      	bne.n	100046fe <_isatty_r+0x1a>
100046f8:	682b      	ldr	r3, [r5, #0]
100046fa:	b103      	cbz	r3, 100046fe <_isatty_r+0x1a>
100046fc:	6023      	str	r3, [r4, #0]
100046fe:	bd38      	pop	{r3, r4, r5, pc}
10004700:	100202f0 	.word	0x100202f0

10004704 <_lseek_r>:
10004704:	b538      	push	{r3, r4, r5, lr}
10004706:	4d07      	ldr	r5, [pc, #28]	; (10004724 <_lseek_r+0x20>)
10004708:	4604      	mov	r4, r0
1000470a:	4608      	mov	r0, r1
1000470c:	4611      	mov	r1, r2
1000470e:	2200      	movs	r2, #0
10004710:	602a      	str	r2, [r5, #0]
10004712:	461a      	mov	r2, r3
10004714:	f7fb fe74 	bl	10000400 <_lseek>
10004718:	1c43      	adds	r3, r0, #1
1000471a:	d102      	bne.n	10004722 <_lseek_r+0x1e>
1000471c:	682b      	ldr	r3, [r5, #0]
1000471e:	b103      	cbz	r3, 10004722 <_lseek_r+0x1e>
10004720:	6023      	str	r3, [r4, #0]
10004722:	bd38      	pop	{r3, r4, r5, pc}
10004724:	100202f0 	.word	0x100202f0

10004728 <_read_r>:
10004728:	b538      	push	{r3, r4, r5, lr}
1000472a:	4d07      	ldr	r5, [pc, #28]	; (10004748 <_read_r+0x20>)
1000472c:	4604      	mov	r4, r0
1000472e:	4608      	mov	r0, r1
10004730:	4611      	mov	r1, r2
10004732:	2200      	movs	r2, #0
10004734:	602a      	str	r2, [r5, #0]
10004736:	461a      	mov	r2, r3
10004738:	f7fb fe3c 	bl	100003b4 <_read>
1000473c:	1c43      	adds	r3, r0, #1
1000473e:	d102      	bne.n	10004746 <_read_r+0x1e>
10004740:	682b      	ldr	r3, [r5, #0]
10004742:	b103      	cbz	r3, 10004746 <_read_r+0x1e>
10004744:	6023      	str	r3, [r4, #0]
10004746:	bd38      	pop	{r3, r4, r5, pc}
10004748:	100202f0 	.word	0x100202f0

1000474c <_init>:
1000474c:	b5f8      	push	{r3, r4, r5, r6, r7, lr}
1000474e:	bf00      	nop
10004750:	bcf8      	pop	{r3, r4, r5, r6, r7}
10004752:	bc08      	pop	{r3}
10004754:	469e      	mov	lr, r3
10004756:	4770      	bx	lr

10004758 <_fini>:
10004758:	b5f8      	push	{r3, r4, r5, r6, r7, lr}
1000475a:	bf00      	nop
1000475c:	bcf8      	pop	{r3, r4, r5, r6, r7}
1000475e:	bc08      	pop	{r3}
10004760:	469e      	mov	lr, r3
10004762:	4770      	bx	lr

Disassembly of section .startup_copro_fw.Reset_Handler:

10004764 <Reset_Handler>:
10004764:	f8df d034 	ldr.w	sp, [pc, #52]	; 1000479c <LoopForever+0x2>
10004768:	2100      	movs	r1, #0
1000476a:	e003      	b.n	10004774 <LoopCopyDataInit>

1000476c <CopyDataInit>:
1000476c:	4b0c      	ldr	r3, [pc, #48]	; (100047a0 <LoopForever+0x6>)
1000476e:	585b      	ldr	r3, [r3, r1]
10004770:	5043      	str	r3, [r0, r1]
10004772:	3104      	adds	r1, #4

10004774 <LoopCopyDataInit>:
10004774:	480b      	ldr	r0, [pc, #44]	; (100047a4 <LoopForever+0xa>)
10004776:	4b0c      	ldr	r3, [pc, #48]	; (100047a8 <LoopForever+0xe>)
10004778:	1842      	adds	r2, r0, r1
1000477a:	429a      	cmp	r2, r3
1000477c:	d3f6      	bcc.n	1000476c <CopyDataInit>
1000477e:	4a0b      	ldr	r2, [pc, #44]	; (100047ac <LoopForever+0x12>)
10004780:	e002      	b.n	10004788 <LoopFillZerobss>

10004782 <FillZerobss>:
10004782:	2300      	movs	r3, #0
10004784:	f842 3b04 	str.w	r3, [r2], #4

10004788 <LoopFillZerobss>:
10004788:	4b09      	ldr	r3, [pc, #36]	; (100047b0 <LoopForever+0x16>)
1000478a:	429a      	cmp	r2, r3
1000478c:	d3f9      	bcc.n	10004782 <FillZerobss>
1000478e:	f7fb fcb7 	bl	10000100 <SystemInit>
10004792:	f7fe ffa7 	bl	100036e4 <__libc_init_array>
10004796:	f7fb fd5b 	bl	10000250 <main>

1000479a <LoopForever>:
1000479a:	e7fe      	b.n	1000479a <LoopForever>
1000479c:	10040000 	.word	0x10040000
100047a0:	10004b10 	.word	0x10004b10
100047a4:	10020000 	.word	0x10020000
100047a8:	10020128 	.word	0x10020128
100047ac:	100201b4 	.word	0x100201b4
100047b0:	100202f4 	.word	0x100202f4
